(S'BEGINNING_OF_SEQUENCE'
p0
S'(0, 0, 0)'
p1
S'END_OF_SEQUENCE'
p2
S'BEGINNING_OF_SEQUENCE'
p3
S'(0, 0, 0)'
p4
S'(0, 0, -12)'
p5
S'(0, -12, -7)'
p6
S'END_OF_SEQUENCE'
p7
S'BEGINNING_OF_SEQUENCE'
p8
S'(0, 0, 0)'
p9
S'(0, 0, -19)'
p10
S'(0, -19, 0)'
p11
S'(-19, 0, 1)'
p12
S'(0, 1, 1)'
p13
S'END_OF_SEQUENCE'
p14
S'BEGINNING_OF_SEQUENCE'
p15
S'(0, 0, 0)'
p16
S'END_OF_SEQUENCE'
p17
S'BEGINNING_OF_SEQUENCE'
p18
S'(0, 0, 0)'
p19
S'END_OF_SEQUENCE'
p20
S'BEGINNING_OF_SEQUENCE'
p21
S'(0, 0, 0)'
p22
S'END_OF_SEQUENCE'
p23
S'BEGINNING_OF_SEQUENCE'
p24
S'(0, 0, 0)'
p25
S'END_OF_SEQUENCE'
p26
S'BEGINNING_OF_SEQUENCE'
p27
S'(0, 0, 0)'
p28
S'(0, 0, -12)'
p29
S'(0, -12, 9)'
p30
S'(-12, 9, 1)'
p31
S'END_OF_SEQUENCE'
p32
S'BEGINNING_OF_SEQUENCE'
p33
S'(0, 0, 0)'
p34
S'END_OF_SEQUENCE'
p35
S'BEGINNING_OF_SEQUENCE'
p36
S'(0, 0, 0)'
p37
S'(0, 0, -24)'
p38
S'(0, -24, 24)'
p39
S'(-24, 24, -24)'
p40
S'(24, -24, 16)'
p41
S'END_OF_SEQUENCE'
p42
S'BEGINNING_OF_SEQUENCE'
p43
S'(0, 0, 0)'
p44
S'(0, 0, -15)'
p45
S'(0, -15, 9)'
p46
S'END_OF_SEQUENCE'
p47
S'BEGINNING_OF_SEQUENCE'
p48
S'(0, 0, 0)'
p49
S'(0, 0, -14)'
p50
S'END_OF_SEQUENCE'
p51
S'BEGINNING_OF_SEQUENCE'
p52
S'(0, 0, 0)'
p53
S'END_OF_SEQUENCE'
p54
S'BEGINNING_OF_SEQUENCE'
p55
S'(0, 0, 0)'
p56
S'END_OF_SEQUENCE'
p57
S'BEGINNING_OF_SEQUENCE'
p58
S'(0, 0, 0)'
p59
S'(0, 0, -12)'
p60
S'(0, -12, 0)'
p61
S'END_OF_SEQUENCE'
p62
S'BEGINNING_OF_SEQUENCE'
p63
S'(0, 0, 0)'
p64
S'(0, 0, -3)'
p65
S'(0, -3, 0)'
p66
S'(-3, 0, 3)'
p67
S'(0, 3, -3)'
p68
S'(3, -3, 3)'
p69
S'(-3, 3, -3)'
p70
S'(3, -3, -4)'
p71
S'(-3, -4, -5)'
p72
S'END_OF_SEQUENCE'
p73
S'BEGINNING_OF_SEQUENCE'
p74
S'(0, 0, 0)'
p75
S'(0, 0, -3)'
p76
S'(0, -3, 0)'
p77
S'(-3, 0, 3)'
p78
S'(0, 3, -3)'
p79
S'(3, -3, 3)'
p80
S'(-3, 3, -3)'
p81
S'(3, -3, -4)'
p82
S'(-3, -4, -5)'
p83
S'(-4, -5, -14)'
p84
S'(-5, -14, 4)'
p85
S'(-14, 4, 18)'
p86
S'(4, 18, -15)'
p87
S'(18, -15, -7)'
p88
S'END_OF_SEQUENCE'
p89
S'BEGINNING_OF_SEQUENCE'
p90
S'(0, 0, 0)'
p91
S'(0, 0, -12)'
p92
S'(0, -12, -7)'
p93
S'END_OF_SEQUENCE'
p94
S'BEGINNING_OF_SEQUENCE'
p95
S'(0, 0, 0)'
p96
S'(0, 0, -19)'
p97
S'(0, -19, -1)'
p98
S'(-19, -1, 2)'
p99
S'(-1, 2, 1)'
p100
S'END_OF_SEQUENCE'
p101
S'BEGINNING_OF_SEQUENCE'
p102
S'(0, 0, 0)'
p103
S'(0, 0, -2)'
p104
S'(0, -2, -2)'
p105
S'(-2, -2, 2)'
p106
S'(-2, 2, -2)'
p107
S'END_OF_SEQUENCE'
p108
S'BEGINNING_OF_SEQUENCE'
p109
S'(0, 0, 0)'
p110
S'(0, 0, -2)'
p111
S'(0, -2, -2)'
p112
S'(-2, -2, -12)'
p113
S'(-2, -12, 9)'
p114
S'(-12, 9, 1)'
p115
S'END_OF_SEQUENCE'
p116
S'BEGINNING_OF_SEQUENCE'
p117
S'(0, 0, 0)'
p118
S'END_OF_SEQUENCE'
p119
S'BEGINNING_OF_SEQUENCE'
p120
S'(0, 0, 0)'
p121
S'(0, 0, -24)'
p122
S'(0, -24, 24)'
p123
S'(-24, 24, -24)'
p124
S'(24, -24, 16)'
p125
S'END_OF_SEQUENCE'
p126
S'BEGINNING_OF_SEQUENCE'
p127
S'(0, 0, 0)'
p128
S'(0, 0, -15)'
p129
S'(0, -15, 9)'
p130
S'END_OF_SEQUENCE'
p131
S'BEGINNING_OF_SEQUENCE'
p132
S'(0, 0, 0)'
p133
S'(0, 0, -14)'
p134
S'END_OF_SEQUENCE'
p135
S'BEGINNING_OF_SEQUENCE'
p136
S'(0, 0, 0)'
p137
S'END_OF_SEQUENCE'
p138
S'BEGINNING_OF_SEQUENCE'
p139
S'(0, 0, 0)'
p140
S'END_OF_SEQUENCE'
p141
S'BEGINNING_OF_SEQUENCE'
p142
S'(0, 0, 0)'
p143
S'END_OF_SEQUENCE'
p144
S'BEGINNING_OF_SEQUENCE'
p145
S'(0, 0, 0)'
p146
S'END_OF_SEQUENCE'
p147
S'BEGINNING_OF_SEQUENCE'
p148
S'(0, 0, 0)'
p149
S'END_OF_SEQUENCE'
p150
S'BEGINNING_OF_SEQUENCE'
p151
S'(0, 0, 0)'
p152
S'END_OF_SEQUENCE'
p153
S'BEGINNING_OF_SEQUENCE'
p154
S'(0, 0, 0)'
p155
S'END_OF_SEQUENCE'
p156
S'BEGINNING_OF_SEQUENCE'
p157
S'(0, 0, 0)'
p158
S'END_OF_SEQUENCE'
p159
S'BEGINNING_OF_SEQUENCE'
p160
S'(0, 0, 0)'
p161
S'END_OF_SEQUENCE'
p162
S'BEGINNING_OF_SEQUENCE'
p163
S'(0, 0, 0)'
p164
S'END_OF_SEQUENCE'
p165
S'BEGINNING_OF_SEQUENCE'
p166
S'(0, 0, 0)'
p167
S'(0, 0, 3)'
p168
S'(0, 3, 2)'
p169
S'(3, 2, 1)'
p170
S'(2, 1, -1)'
p171
S'(1, -1, -2)'
p172
S'(-1, -2, 2)'
p173
S'(-2, 2, -2)'
p174
S'(2, -2, -3)'
p175
S'(-2, -3, 0)'
p176
S'(-3, 0, -24)'
p177
S'END_OF_SEQUENCE'
p178
S'BEGINNING_OF_SEQUENCE'
p179
S'(0, 0, 0)'
p180
S'END_OF_SEQUENCE'
p181
S'BEGINNING_OF_SEQUENCE'
p182
S'(0, 0, 0)'
p183
S'END_OF_SEQUENCE'
p184
S'BEGINNING_OF_SEQUENCE'
p185
S'(0, 0, 0)'
p186
S'END_OF_SEQUENCE'
p187
S'BEGINNING_OF_SEQUENCE'
p188
S'(0, 0, 0)'
p189
S'END_OF_SEQUENCE'
p190
S'BEGINNING_OF_SEQUENCE'
p191
S'(0, 0, 0)'
p192
S'END_OF_SEQUENCE'
p193
S'BEGINNING_OF_SEQUENCE'
p194
S'(0, 0, 0)'
p195
S'END_OF_SEQUENCE'
p196
S'BEGINNING_OF_SEQUENCE'
p197
S'(0, 0, 0)'
p198
S'END_OF_SEQUENCE'
p199
S'BEGINNING_OF_SEQUENCE'
p200
S'(0, 0, 0)'
p201
S'(0, 0, 3)'
p202
S'(0, 3, 2)'
p203
S'(3, 2, 1)'
p204
S'(2, 1, -1)'
p205
S'(1, -1, -2)'
p206
S'(-1, -2, 2)'
p207
S'(-2, 2, -2)'
p208
S'(2, -2, -3)'
p209
S'(-2, -3, 0)'
p210
S'(-3, 0, -24)'
p211
S'END_OF_SEQUENCE'
p212
S'BEGINNING_OF_SEQUENCE'
p213
S'(0, 0, 0)'
p214
S'END_OF_SEQUENCE'
p215
S'BEGINNING_OF_SEQUENCE'
p216
S'(0, 0, 0)'
p217
S'END_OF_SEQUENCE'
p218
S'BEGINNING_OF_SEQUENCE'
p219
S'(0, 0, 0)'
p220
S'END_OF_SEQUENCE'
p221
S'BEGINNING_OF_SEQUENCE'
p222
S'(0, 0, 0)'
p223
S'END_OF_SEQUENCE'
p224
S'BEGINNING_OF_SEQUENCE'
p225
S'(0, 0, 0)'
p226
S'END_OF_SEQUENCE'
p227
S'BEGINNING_OF_SEQUENCE'
p228
S'(0, 0, 0)'
p229
S'END_OF_SEQUENCE'
p230
S'BEGINNING_OF_SEQUENCE'
p231
S'(0, 0, 0)'
p232
S'END_OF_SEQUENCE'
p233
S'BEGINNING_OF_SEQUENCE'
p234
S'(0, 0, 0)'
p235
S'(0, 0, 3)'
p236
S'(0, 3, 2)'
p237
S'(3, 2, 1)'
p238
S'(2, 1, -1)'
p239
S'(1, -1, -2)'
p240
S'(-1, -2, 2)'
p241
S'(-2, 2, -2)'
p242
S'(2, -2, -3)'
p243
S'(-2, -3, 0)'
p244
S'(-3, 0, -24)'
p245
S'END_OF_SEQUENCE'
p246
S'BEGINNING_OF_SEQUENCE'
p247
S'(0, 0, 0)'
p248
S'END_OF_SEQUENCE'
p249
S'BEGINNING_OF_SEQUENCE'
p250
S'(0, 0, 0)'
p251
S'END_OF_SEQUENCE'
p252
S'BEGINNING_OF_SEQUENCE'
p253
S'(0, 0, 0)'
p254
S'END_OF_SEQUENCE'
p255
S'BEGINNING_OF_SEQUENCE'
p256
S'(0, 0, 0)'
p257
S'END_OF_SEQUENCE'
p258
S'BEGINNING_OF_SEQUENCE'
p259
S'(0, 0, 0)'
p260
S'END_OF_SEQUENCE'
p261
S'BEGINNING_OF_SEQUENCE'
p262
S'(0, 0, 0)'
p263
S'END_OF_SEQUENCE'
p264
S'BEGINNING_OF_SEQUENCE'
p265
S'(0, 0, 0)'
p266
S'END_OF_SEQUENCE'
p267
S'BEGINNING_OF_SEQUENCE'
p268
S'(0, 0, 0)'
p269
S'(0, 0, 3)'
p270
S'(0, 3, 2)'
p271
S'(3, 2, 1)'
p272
S'(2, 1, -1)'
p273
S'(1, -1, -2)'
p274
S'(-1, -2, 2)'
p275
S'(-2, 2, -2)'
p276
S'(2, -2, -3)'
p277
S'(-2, -3, 0)'
p278
S'(-3, 0, -24)'
p279
S'END_OF_SEQUENCE'
p280
S'BEGINNING_OF_SEQUENCE'
p281
S'(0, 0, 0)'
p282
S'END_OF_SEQUENCE'
p283
S'BEGINNING_OF_SEQUENCE'
p284
S'(0, 0, 0)'
p285
S'END_OF_SEQUENCE'
p286
S'BEGINNING_OF_SEQUENCE'
p287
S'(0, 0, 0)'
p288
S'END_OF_SEQUENCE'
p289
S'BEGINNING_OF_SEQUENCE'
p290
S'(0, 0, 0)'
p291
S'END_OF_SEQUENCE'
p292
S'BEGINNING_OF_SEQUENCE'
p293
S'(0, 0, 0)'
p294
S'END_OF_SEQUENCE'
p295
S'BEGINNING_OF_SEQUENCE'
p296
S'(0, 0, 0)'
p297
S'END_OF_SEQUENCE'
p298
S'BEGINNING_OF_SEQUENCE'
p299
S'(0, 0, 0)'
p300
S'END_OF_SEQUENCE'
p301
S'BEGINNING_OF_SEQUENCE'
p302
S'(0, 0, 0)'
p303
S'(0, 0, 3)'
p304
S'(0, 3, 2)'
p305
S'(3, 2, 1)'
p306
S'(2, 1, -1)'
p307
S'(1, -1, -2)'
p308
S'(-1, -2, 2)'
p309
S'(-2, 2, -2)'
p310
S'(2, -2, -3)'
p311
S'(-2, -3, 0)'
p312
S'(-3, 0, -24)'
p313
S'END_OF_SEQUENCE'
p314
S'BEGINNING_OF_SEQUENCE'
p315
S'(0, 0, 0)'
p316
S'END_OF_SEQUENCE'
p317
S'BEGINNING_OF_SEQUENCE'
p318
S'(0, 0, 0)'
p319
S'END_OF_SEQUENCE'
p320
S'BEGINNING_OF_SEQUENCE'
p321
S'(0, 0, 0)'
p322
S'END_OF_SEQUENCE'
p323
S'BEGINNING_OF_SEQUENCE'
p324
S'(0, 0, 0)'
p325
S'END_OF_SEQUENCE'
p326
S'BEGINNING_OF_SEQUENCE'
p327
S'(0, 0, 0)'
p328
S'END_OF_SEQUENCE'
p329
S'BEGINNING_OF_SEQUENCE'
p330
S'(0, 0, 0)'
p331
S'END_OF_SEQUENCE'
p332
S'BEGINNING_OF_SEQUENCE'
p333
S'(0, 0, 0)'
p334
S'END_OF_SEQUENCE'
p335
S'BEGINNING_OF_SEQUENCE'
p336
S'(0, 0, 0)'
p337
S'END_OF_SEQUENCE'
p338
S'BEGINNING_OF_SEQUENCE'
p339
S'(0, 0, 0)'
p340
S'END_OF_SEQUENCE'
p341
S'BEGINNING_OF_SEQUENCE'
p342
S'(0, 0, 0)'
p343
S'END_OF_SEQUENCE'
p344
S'BEGINNING_OF_SEQUENCE'
p345
S'(0, 0, 0)'
p346
S'END_OF_SEQUENCE'
p347
S'BEGINNING_OF_SEQUENCE'
p348
S'(0, 0, 0)'
p349
S'END_OF_SEQUENCE'
p350
S'BEGINNING_OF_SEQUENCE'
p351
S'(0, 0, 0)'
p352
S'END_OF_SEQUENCE'
p353
S'BEGINNING_OF_SEQUENCE'
p354
S'(0, 0, 0)'
p355
S'(0, 0, 0)'
p356
S'(0, 0, 0)'
p357
S'(0, 0, 0)'
p358
S'(0, 0, 0)'
p359
S'(0, 0, -2)'
p360
S'(0, -2, 0)'
p361
S'(-2, 0, -2)'
p362
S'(0, -2, -3)'
p363
S'(-2, -3, 3)'
p364
S'(-3, 3, 2)'
p365
S'(3, 2, -2)'
p366
S'(2, -2, -3)'
p367
S'(-2, -3, -2)'
p368
S'(-3, -2, 2)'
p369
S'(-2, 2, -2)'
p370
S'(2, -2, 2)'
p371
S'(-2, 2, -12)'
p372
S'(2, -12, 5)'
p373
S'(-12, 5, 2)'
p374
S'(5, 2, 3)'
p375
S'(2, 3, 2)'
p376
S'(3, 2, 7)'
p377
S'(2, 7, 3)'
p378
S'(7, 3, 2)'
p379
S'(3, 2, -2)'
p380
S'(2, -2, 2)'
p381
S'(-2, 2, -2)'
p382
S'(2, -2, 2)'
p383
S'(-2, 2, 3)'
p384
S'(2, 3, -3)'
p385
S'(3, -3, 3)'
p386
S'(-3, 3, 0)'
p387
S'(3, 0, -15)'
p388
S'(0, -15, 0)'
p389
S'(-15, 0, 7)'
p390
S'(0, 7, 3)'
p391
S'(7, 3, 2)'
p392
S'(3, 2, -2)'
p393
S'(2, -2, 2)'
p394
S'(-2, 2, -2)'
p395
S'(2, -2, 5)'
p396
S'(-2, 5, 0)'
p397
S'(5, 0, 0)'
p398
S'(0, 0, -3)'
p399
S'(0, -3, -6)'
p400
S'(-3, -6, -1)'
p401
S'(-6, -1, -2)'
p402
S'(-1, -2, -3)'
p403
S'(-2, -3, 0)'
p404
S'(-3, 0, 6)'
p405
S'(0, 6, -1)'
p406
S'(6, -1, -2)'
p407
S'(-1, -2, -3)'
p408
S'(-2, -3, -2)'
p409
S'(-3, -2, 9)'
p410
S'(-2, 9, -4)'
p411
S'(9, -4, 2)'
p412
S'(-4, 2, -5)'
p413
S'(2, -5, 3)'
p414
S'(-5, 3, 4)'
p415
S'(3, 4, 3)'
p416
S'(4, 3, 4)'
p417
S'(3, 4, 1)'
p418
S'(4, 1, -3)'
p419
S'(1, -3, -5)'
p420
S'(-3, -5, 8)'
p421
S'(-5, 8, -3)'
p422
S'(8, -3, -5)'
p423
S'(-3, -5, 0)'
p424
S'(-5, 0, 3)'
p425
S'(0, 3, 2)'
p426
S'(3, 2, 3)'
p427
S'(2, 3, 2)'
p428
S'(3, 2, -2)'
p429
S'(2, -2, 2)'
p430
S'(-2, 2, -5)'
p431
S'(2, -5, 0)'
p432
S'(-5, 0, 3)'
p433
S'(0, 3, 2)'
p434
S'(3, 2, 0)'
p435
S'(2, 0, 0)'
p436
S'(0, 0, -2)'
p437
S'(0, -2, -3)'
p438
S'(-2, -3, 3)'
p439
S'(-3, 3, 2)'
p440
S'(3, 2, 0)'
p441
S'(2, 0, 0)'
p442
S'(0, 0, -2)'
p443
S'(0, -2, 2)'
p444
S'(-2, 2, -5)'
p445
S'(2, -5, -7)'
p446
S'(-5, -7, -2)'
p447
S'(-7, -2, 2)'
p448
S'(-2, 2, -2)'
p449
S'(2, -2, -3)'
p450
S'(-2, -3, 0)'
p451
S'(-3, 0, 0)'
p452
S'(0, 0, 7)'
p453
S'(0, 7, 7)'
p454
S'(7, 7, 0)'
p455
S'(7, 0, -11)'
p456
S'(0, -11, -3)'
p457
S'(-11, -3, 0)'
p458
S'(-3, 0, 14)'
p459
S'(0, 14, 0)'
p460
S'(14, 0, 0)'
p461
S'(0, 0, 1)'
p462
S'(0, 1, -1)'
p463
S'(1, -1, -2)'
p464
S'END_OF_SEQUENCE'
p465
S'BEGINNING_OF_SEQUENCE'
p466
S'(0, 0, 0)'
p467
S'END_OF_SEQUENCE'
p468
S'BEGINNING_OF_SEQUENCE'
p469
S'(0, 0, 0)'
p470
S'(0, 0, 2)'
p471
S'(0, 2, 0)'
p472
S'(2, 0, -2)'
p473
S'(0, -2, 2)'
p474
S'(-2, 2, -2)'
p475
S'(2, -2, 2)'
p476
S'(-2, 2, -5)'
p477
S'(2, -5, 3)'
p478
S'(-5, 3, 0)'
p479
S'(3, 0, 0)'
p480
S'(0, 0, 2)'
p481
S'(0, 2, -2)'
p482
S'(2, -2, 0)'
p483
S'(-2, 0, 2)'
p484
S'(0, 2, -2)'
p485
S'(2, -2, 0)'
p486
S'(-2, 0, 2)'
p487
S'(0, 2, -2)'
p488
S'(2, -2, 0)'
p489
S'(-2, 0, -3)'
p490
S'(0, -3, -2)'
p491
S'(-3, -2, -2)'
p492
S'(-2, -2, 9)'
p493
S'(-2, 9, -2)'
p494
S'(9, -2, 5)'
p495
S'(-2, 5, 2)'
p496
S'(5, 2, 0)'
p497
S'(2, 0, -2)'
p498
S'(0, -2, 2)'
p499
S'(-2, 2, -5)'
p500
S'(2, -5, 3)'
p501
S'(-5, 3, -3)'
p502
S'(3, -3, 3)'
p503
S'(-3, 3, -5)'
p504
S'(3, -5, 5)'
p505
S'(-5, 5, -3)'
p506
S'(5, -3, 3)'
p507
S'(-3, 3, -5)'
p508
S'(3, -5, 5)'
p509
S'(-5, 5, -3)'
p510
S'(5, -3, 3)'
p511
S'(-3, 3, -10)'
p512
S'(3, -10, -5)'
p513
S'(-10, -5, 3)'
p514
S'(-5, 3, 2)'
p515
S'(3, 2, 1)'
p516
S'(2, 1, 4)'
p517
S'(1, 4, 0)'
p518
S'(4, 0, -4)'
p519
S'(0, -4, -1)'
p520
S'(-4, -1, -2)'
p521
S'(-1, -2, -3)'
p522
S'(-2, -3, 0)'
p523
S'(-3, 0, 10)'
p524
S'(0, 10, 2)'
p525
S'(10, 2, -2)'
p526
S'(2, -2, 2)'
p527
S'(-2, 2, -2)'
p528
S'(2, -2, 2)'
p529
S'(-2, 2, 0)'
p530
S'(2, 0, 0)'
p531
S'(0, 0, -4)'
p532
S'(0, -4, -1)'
p533
S'(-4, -1, -2)'
p534
S'(-1, -2, -2)'
p535
S'(-2, -2, -3)'
p536
S'(-2, -3, 5)'
p537
S'(-3, 5, 0)'
p538
S'(5, 0, -2)'
p539
S'(0, -2, 2)'
p540
S'(-2, 2, -2)'
p541
S'(2, -2, -3)'
p542
S'(-2, -3, 3)'
p543
S'(-3, 3, -3)'
p544
S'(3, -3, -2)'
p545
S'(-3, -2, 2)'
p546
S'(-2, 2, -5)'
p547
S'(2, -5, 3)'
p548
S'(-5, 3, 2)'
p549
S'(3, 2, 3)'
p550
S'(2, 3, 0)'
p551
S'(3, 0, -5)'
p552
S'(0, -5, 2)'
p553
S'(-5, 2, 0)'
p554
S'(2, 0, 0)'
p555
S'(0, 0, 3)'
p556
S'(0, 3, -8)'
p557
S'(3, -8, -4)'
p558
S'(-8, -4, -3)'
p559
S'(-4, -3, 0)'
p560
S'(-3, 0, 3)'
p561
S'(0, 3, -3)'
p562
S'(3, -3, -2)'
p563
S'(-3, -2, 2)'
p564
S'(-2, 2, -5)'
p565
S'(2, -5, 3)'
p566
S'(-5, 3, -3)'
p567
S'(3, -3, 5)'
p568
S'END_OF_SEQUENCE'
p569
S'BEGINNING_OF_SEQUENCE'
p570
S'(0, 0, 0)'
p571
S'(0, 0, 8)'
p572
S'(0, 8, -10)'
p573
S'END_OF_SEQUENCE'
p574
S'BEGINNING_OF_SEQUENCE'
p575
S'(0, 0, 0)'
p576
S'(0, 0, -4)'
p577
S'END_OF_SEQUENCE'
p578
S'BEGINNING_OF_SEQUENCE'
p579
S'(0, 0, 0)'
p580
S'(0, 0, -2)'
p581
S'(0, -2, -2)'
p582
S'(-2, -2, -3)'
p583
S'(-2, -3, 0)'
p584
S'(-3, 0, 3)'
p585
S'(0, 3, -3)'
p586
S'(3, -3, 3)'
p587
S'(-3, 3, -3)'
p588
S'(3, -3, 7)'
p589
S'(-3, 7, -4)'
p590
S'(7, -4, 2)'
p591
S'(-4, 2, -2)'
p592
S'(2, -2, -3)'
p593
S'(-2, -3, 0)'
p594
S'(-3, 0, 3)'
p595
S'(0, 3, 4)'
p596
S'(3, 4, -4)'
p597
S'(4, -4, 2)'
p598
S'(-4, 2, -2)'
p599
S'(2, -2, -3)'
p600
S'(-2, -3, 5)'
p601
S'(-3, 5, 1)'
p602
S'(5, 1, -1)'
p603
S'(1, -1, -2)'
p604
S'(-1, -2, -3)'
p605
S'(-2, -3, -2)'
p606
S'(-3, -2, 9)'
p607
S'(-2, 9, 3)'
p608
S'(9, 3, -5)'
p609
S'(3, -5, 1)'
p610
S'(-5, 1, -1)'
p611
S'(1, -1, -2)'
p612
S'(-1, -2, 2)'
p613
S'(-2, 2, -2)'
p614
S'(2, -2, -3)'
p615
S'(-2, -3, 15)'
p616
S'(-3, 15, 0)'
p617
S'(15, 0, -3)'
p618
S'(0, -3, 1)'
p619
S'(-3, 1, 0)'
p620
S'(1, 0, -1)'
p621
S'(0, -1, -2)'
p622
S'(-1, -2, 2)'
p623
S'(-2, 2, 3)'
p624
S'(2, 3, 0)'
p625
S'(3, 0, -3)'
p626
S'(0, -3, -5)'
p627
S'(-3, -5, -4)'
p628
S'(-5, -4, 2)'
p629
S'(-4, 2, 7)'
p630
S'(2, 7, -7)'
p631
S'(7, -7, -2)'
p632
S'(-7, -2, 2)'
p633
S'(-2, 2, -2)'
p634
S'(2, -2, -3)'
p635
S'(-2, -3, -2)'
p636
S'(-3, -2, 2)'
p637
S'(-2, 2, 15)'
p638
S'(2, 15, 0)'
p639
S'(15, 0, -3)'
p640
S'(0, -3, -5)'
p641
S'(-3, -5, 8)'
p642
S'(-5, 8, 0)'
p643
S'(8, 0, 0)'
p644
S'(0, 0, -8)'
p645
S'(0, -8, 8)'
p646
S'(-8, 8, 0)'
p647
S'(8, 0, -3)'
p648
S'(0, -3, -2)'
p649
S'(-3, -2, -3)'
p650
S'(-2, -3, -2)'
p651
S'(-3, -2, -2)'
p652
S'(-2, -2, 2)'
p653
S'(-2, 2, -2)'
p654
S'(2, -2, -3)'
p655
S'END_OF_SEQUENCE'
p656
S'BEGINNING_OF_SEQUENCE'
p657
S'(0, 0, 0)'
p658
S'(0, 0, 0)'
p659
S'(0, 0, 0)'
p660
S'(0, 0, 0)'
p661
S'(0, 0, 0)'
p662
S'(0, 0, -2)'
p663
S'(0, -2, 0)'
p664
S'(-2, 0, -2)'
p665
S'(0, -2, -3)'
p666
S'(-2, -3, 3)'
p667
S'(-3, 3, 2)'
p668
S'(3, 2, -2)'
p669
S'(2, -2, -3)'
p670
S'(-2, -3, -2)'
p671
S'(-3, -2, 2)'
p672
S'(-2, 2, -2)'
p673
S'(2, -2, 2)'
p674
S'(-2, 2, -12)'
p675
S'(2, -12, 5)'
p676
S'(-12, 5, 2)'
p677
S'(5, 2, 3)'
p678
S'(2, 3, 2)'
p679
S'(3, 2, 7)'
p680
S'(2, 7, 3)'
p681
S'(7, 3, 2)'
p682
S'(3, 2, -2)'
p683
S'(2, -2, 2)'
p684
S'(-2, 2, -2)'
p685
S'(2, -2, 2)'
p686
S'(-2, 2, 3)'
p687
S'(2, 3, -3)'
p688
S'(3, -3, 3)'
p689
S'(-3, 3, 0)'
p690
S'(3, 0, -15)'
p691
S'(0, -15, 0)'
p692
S'(-15, 0, 7)'
p693
S'(0, 7, 3)'
p694
S'(7, 3, 2)'
p695
S'(3, 2, -2)'
p696
S'(2, -2, 2)'
p697
S'(-2, 2, -2)'
p698
S'(2, -2, 5)'
p699
S'(-2, 5, 0)'
p700
S'(5, 0, 0)'
p701
S'(0, 0, -3)'
p702
S'(0, -3, -6)'
p703
S'(-3, -6, -1)'
p704
S'(-6, -1, -2)'
p705
S'(-1, -2, -3)'
p706
S'(-2, -3, 0)'
p707
S'(-3, 0, 6)'
p708
S'(0, 6, -1)'
p709
S'(6, -1, -2)'
p710
S'(-1, -2, -3)'
p711
S'(-2, -3, -2)'
p712
S'(-3, -2, 9)'
p713
S'(-2, 9, -4)'
p714
S'(9, -4, 2)'
p715
S'(-4, 2, -5)'
p716
S'(2, -5, 3)'
p717
S'(-5, 3, 4)'
p718
S'(3, 4, 3)'
p719
S'(4, 3, 4)'
p720
S'(3, 4, 1)'
p721
S'(4, 1, -3)'
p722
S'(1, -3, -5)'
p723
S'(-3, -5, 8)'
p724
S'(-5, 8, -3)'
p725
S'(8, -3, -5)'
p726
S'(-3, -5, 0)'
p727
S'(-5, 0, 3)'
p728
S'(0, 3, 2)'
p729
S'(3, 2, 3)'
p730
S'(2, 3, 2)'
p731
S'(3, 2, -2)'
p732
S'(2, -2, 2)'
p733
S'(-2, 2, -5)'
p734
S'(2, -5, 0)'
p735
S'(-5, 0, 3)'
p736
S'(0, 3, 2)'
p737
S'(3, 2, 0)'
p738
S'(2, 0, 0)'
p739
S'(0, 0, -2)'
p740
S'(0, -2, -3)'
p741
S'(-2, -3, 3)'
p742
S'(-3, 3, 2)'
p743
S'(3, 2, 0)'
p744
S'(2, 0, 0)'
p745
S'(0, 0, -2)'
p746
S'(0, -2, 2)'
p747
S'(-2, 2, -5)'
p748
S'(2, -5, -7)'
p749
S'(-5, -7, -2)'
p750
S'(-7, -2, 2)'
p751
S'(-2, 2, -2)'
p752
S'(2, -2, -3)'
p753
S'(-2, -3, 0)'
p754
S'(-3, 0, 0)'
p755
S'(0, 0, 7)'
p756
S'(0, 7, 7)'
p757
S'(7, 7, 0)'
p758
S'(7, 0, -11)'
p759
S'(0, -11, -3)'
p760
S'(-11, -3, 0)'
p761
S'(-3, 0, 14)'
p762
S'(0, 14, 0)'
p763
S'(14, 0, 0)'
p764
S'(0, 0, 1)'
p765
S'(0, 1, -1)'
p766
S'(1, -1, -2)'
p767
S'END_OF_SEQUENCE'
p768
S'BEGINNING_OF_SEQUENCE'
p769
S'(0, 0, 0)'
p770
S'END_OF_SEQUENCE'
p771
S'BEGINNING_OF_SEQUENCE'
p772
S'(0, 0, 0)'
p773
S'(0, 0, 2)'
p774
S'(0, 2, 0)'
p775
S'(2, 0, -2)'
p776
S'(0, -2, 2)'
p777
S'(-2, 2, -2)'
p778
S'(2, -2, 2)'
p779
S'(-2, 2, -5)'
p780
S'(2, -5, 3)'
p781
S'(-5, 3, 0)'
p782
S'(3, 0, 0)'
p783
S'(0, 0, 2)'
p784
S'(0, 2, -2)'
p785
S'(2, -2, 0)'
p786
S'(-2, 0, 2)'
p787
S'(0, 2, -2)'
p788
S'(2, -2, 0)'
p789
S'(-2, 0, 2)'
p790
S'(0, 2, -2)'
p791
S'(2, -2, 0)'
p792
S'(-2, 0, -3)'
p793
S'(0, -3, -2)'
p794
S'(-3, -2, -2)'
p795
S'(-2, -2, 9)'
p796
S'(-2, 9, -2)'
p797
S'(9, -2, 5)'
p798
S'(-2, 5, 2)'
p799
S'(5, 2, 0)'
p800
S'(2, 0, -2)'
p801
S'(0, -2, 2)'
p802
S'(-2, 2, -5)'
p803
S'(2, -5, 3)'
p804
S'(-5, 3, -3)'
p805
S'(3, -3, 3)'
p806
S'(-3, 3, -5)'
p807
S'(3, -5, 5)'
p808
S'(-5, 5, -3)'
p809
S'(5, -3, 3)'
p810
S'(-3, 3, -5)'
p811
S'(3, -5, 5)'
p812
S'(-5, 5, -3)'
p813
S'(5, -3, 3)'
p814
S'(-3, 3, -10)'
p815
S'(3, -10, -5)'
p816
S'(-10, -5, 3)'
p817
S'(-5, 3, 2)'
p818
S'(3, 2, 1)'
p819
S'(2, 1, 4)'
p820
S'(1, 4, 0)'
p821
S'(4, 0, -4)'
p822
S'(0, -4, -1)'
p823
S'(-4, -1, -2)'
p824
S'(-1, -2, -3)'
p825
S'(-2, -3, 0)'
p826
S'(-3, 0, 10)'
p827
S'(0, 10, 2)'
p828
S'(10, 2, -2)'
p829
S'(2, -2, 2)'
p830
S'(-2, 2, -2)'
p831
S'(2, -2, 2)'
p832
S'(-2, 2, 0)'
p833
S'(2, 0, 0)'
p834
S'(0, 0, -4)'
p835
S'(0, -4, -1)'
p836
S'(-4, -1, -2)'
p837
S'(-1, -2, -2)'
p838
S'(-2, -2, -3)'
p839
S'(-2, -3, 5)'
p840
S'(-3, 5, 0)'
p841
S'(5, 0, -2)'
p842
S'(0, -2, 2)'
p843
S'(-2, 2, -2)'
p844
S'(2, -2, -3)'
p845
S'(-2, -3, 3)'
p846
S'(-3, 3, -3)'
p847
S'(3, -3, -2)'
p848
S'(-3, -2, 2)'
p849
S'(-2, 2, -5)'
p850
S'(2, -5, 3)'
p851
S'(-5, 3, 2)'
p852
S'(3, 2, 3)'
p853
S'(2, 3, 0)'
p854
S'(3, 0, -5)'
p855
S'(0, -5, 2)'
p856
S'(-5, 2, 0)'
p857
S'(2, 0, 0)'
p858
S'(0, 0, 3)'
p859
S'(0, 3, -8)'
p860
S'(3, -8, -4)'
p861
S'(-8, -4, -3)'
p862
S'(-4, -3, 0)'
p863
S'(-3, 0, 3)'
p864
S'(0, 3, -3)'
p865
S'(3, -3, -2)'
p866
S'(-3, -2, 2)'
p867
S'(-2, 2, -5)'
p868
S'(2, -5, 3)'
p869
S'(-5, 3, -3)'
p870
S'(3, -3, 5)'
p871
S'END_OF_SEQUENCE'
p872
S'BEGINNING_OF_SEQUENCE'
p873
S'(0, 0, 0)'
p874
S'(0, 0, 8)'
p875
S'(0, 8, -10)'
p876
S'END_OF_SEQUENCE'
p877
S'BEGINNING_OF_SEQUENCE'
p878
S'(0, 0, 0)'
p879
S'(0, 0, -4)'
p880
S'END_OF_SEQUENCE'
p881
S'BEGINNING_OF_SEQUENCE'
p882
S'(0, 0, 0)'
p883
S'(0, 0, -2)'
p884
S'(0, -2, -2)'
p885
S'(-2, -2, -3)'
p886
S'(-2, -3, 0)'
p887
S'(-3, 0, 3)'
p888
S'(0, 3, -3)'
p889
S'(3, -3, 3)'
p890
S'(-3, 3, -3)'
p891
S'(3, -3, 7)'
p892
S'(-3, 7, -4)'
p893
S'(7, -4, 2)'
p894
S'(-4, 2, -2)'
p895
S'(2, -2, -3)'
p896
S'(-2, -3, 0)'
p897
S'(-3, 0, 3)'
p898
S'(0, 3, 4)'
p899
S'(3, 4, -4)'
p900
S'(4, -4, 2)'
p901
S'(-4, 2, -2)'
p902
S'(2, -2, -3)'
p903
S'(-2, -3, 5)'
p904
S'(-3, 5, 1)'
p905
S'(5, 1, -1)'
p906
S'(1, -1, -2)'
p907
S'(-1, -2, -3)'
p908
S'(-2, -3, -2)'
p909
S'(-3, -2, 9)'
p910
S'(-2, 9, 3)'
p911
S'(9, 3, -5)'
p912
S'(3, -5, 1)'
p913
S'(-5, 1, -1)'
p914
S'(1, -1, -2)'
p915
S'(-1, -2, 2)'
p916
S'(-2, 2, -2)'
p917
S'(2, -2, -3)'
p918
S'(-2, -3, 15)'
p919
S'(-3, 15, 0)'
p920
S'(15, 0, -3)'
p921
S'(0, -3, 1)'
p922
S'(-3, 1, 0)'
p923
S'(1, 0, -1)'
p924
S'(0, -1, -2)'
p925
S'(-1, -2, 2)'
p926
S'(-2, 2, 3)'
p927
S'(2, 3, 0)'
p928
S'(3, 0, -3)'
p929
S'(0, -3, -5)'
p930
S'(-3, -5, -4)'
p931
S'(-5, -4, 2)'
p932
S'(-4, 2, 7)'
p933
S'(2, 7, -7)'
p934
S'(7, -7, -2)'
p935
S'(-7, -2, 2)'
p936
S'(-2, 2, -2)'
p937
S'(2, -2, -3)'
p938
S'(-2, -3, -2)'
p939
S'(-3, -2, 2)'
p940
S'(-2, 2, 15)'
p941
S'(2, 15, 0)'
p942
S'(15, 0, -3)'
p943
S'(0, -3, -5)'
p944
S'(-3, -5, 8)'
p945
S'(-5, 8, 0)'
p946
S'(8, 0, 0)'
p947
S'(0, 0, -8)'
p948
S'(0, -8, 8)'
p949
S'(-8, 8, 0)'
p950
S'(8, 0, -3)'
p951
S'(0, -3, -2)'
p952
S'(-3, -2, -3)'
p953
S'(-2, -3, -2)'
p954
S'(-3, -2, -2)'
p955
S'(-2, -2, 2)'
p956
S'(-2, 2, -2)'
p957
S'(2, -2, -3)'
p958
S'END_OF_SEQUENCE'
p959
S'BEGINNING_OF_SEQUENCE'
p960
S'(0, 0, 0)'
p961
S'(0, 0, 3)'
p962
S'(0, 3, -3)'
p963
S'END_OF_SEQUENCE'
p964
S'BEGINNING_OF_SEQUENCE'
p965
S'(0, 0, 0)'
p966
S'(0, 0, -17)'
p967
S'(0, -17, 12)'
p968
S'(-17, 12, 5)'
p969
S'END_OF_SEQUENCE'
p970
S'BEGINNING_OF_SEQUENCE'
p971
S'(0, 0, 0)'
p972
S'(0, 0, -24)'
p973
S'(0, -24, 15)'
p974
S'END_OF_SEQUENCE'
p975
S'BEGINNING_OF_SEQUENCE'
p976
S'(0, 0, 0)'
p977
S'(0, 0, -12)'
p978
S'(0, -12, 7)'
p979
S'END_OF_SEQUENCE'
p980
S'BEGINNING_OF_SEQUENCE'
p981
S'(0, 0, 0)'
p982
S'(0, 0, -12)'
p983
S'END_OF_SEQUENCE'
p984
S'BEGINNING_OF_SEQUENCE'
p985
S'(0, 0, 0)'
p986
S'(0, 0, 0)'
p987
S'END_OF_SEQUENCE'
p988
S'BEGINNING_OF_SEQUENCE'
p989
S'(0, 0, 0)'
p990
S'(0, 0, 12)'
p991
S'(0, 12, 0)'
p992
S'(12, 0, -17)'
p993
S'END_OF_SEQUENCE'
p994
S'BEGINNING_OF_SEQUENCE'
p995
S'(0, 0, 0)'
p996
S'END_OF_SEQUENCE'
p997
S'BEGINNING_OF_SEQUENCE'
p998
S'(0, 0, 0)'
p999
S'END_OF_SEQUENCE'
p1000
S'BEGINNING_OF_SEQUENCE'
p1001
S'(0, 0, 0)'
p1002
S'(0, 0, -15)'
p1003
S'END_OF_SEQUENCE'
p1004
S'BEGINNING_OF_SEQUENCE'
p1005
S'(0, 0, 0)'
p1006
S'(0, 0, -24)'
p1007
S'(0, -24, 19)'
p1008
S'(-24, 19, -2)'
p1009
S'END_OF_SEQUENCE'
p1010
S'BEGINNING_OF_SEQUENCE'
p1011
S'(0, 0, 0)'
p1012
S'(0, 0, 0)'
p1013
S'(0, 0, -17)'
p1014
S'END_OF_SEQUENCE'
p1015
S'BEGINNING_OF_SEQUENCE'
p1016
S'(0, 0, 0)'
p1017
S'END_OF_SEQUENCE'
p1018
S'BEGINNING_OF_SEQUENCE'
p1019
S'(0, 0, 0)'
p1020
S'(0, 0, -3)'
p1021
S'(0, -3, 0)'
p1022
S'(-3, 0, -7)'
p1023
S'(0, -7, -12)'
p1024
S'(-7, -12, -2)'
p1025
S'(-12, -2, 7)'
p1026
S'END_OF_SEQUENCE'
p1027
S'BEGINNING_OF_SEQUENCE'
p1028
S'(0, 0, 0)'
p1029
S'(0, 0, 5)'
p1030
S'END_OF_SEQUENCE'
p1031
S'BEGINNING_OF_SEQUENCE'
p1032
S'(0, 0, 0)'
p1033
S'(0, 0, -24)'
p1034
S'(0, -24, -12)'
p1035
S'(-24, -12, 12)'
p1036
S'(-12, 12, 5)'
p1037
S'END_OF_SEQUENCE'
p1038
S'BEGINNING_OF_SEQUENCE'
p1039
S'(0, 0, 0)'
p1040
S'(0, 0, -24)'
p1041
S'(0, -24, -12)'
p1042
S'(-24, -12, 12)'
p1043
S'(-12, 12, 5)'
p1044
S'END_OF_SEQUENCE'
p1045
S'BEGINNING_OF_SEQUENCE'
p1046
S'(0, 0, 0)'
p1047
S'(0, 0, -24)'
p1048
S'(0, -24, 21)'
p1049
S'(-24, 21, 3)'
p1050
S'END_OF_SEQUENCE'
p1051
S'BEGINNING_OF_SEQUENCE'
p1052
S'(0, 0, 0)'
p1053
S'(0, 0, -24)'
p1054
S'(0, -24, 23)'
p1055
S'(-24, 23, -23)'
p1056
S'(23, -23, 22)'
p1057
S'(-23, 22, -22)'
p1058
S'(22, -22, 19)'
p1059
S'END_OF_SEQUENCE'
p1060
S'BEGINNING_OF_SEQUENCE'
p1061
S'(0, 0, 0)'
p1062
S'(0, 0, -12)'
p1063
S'END_OF_SEQUENCE'
p1064
S'BEGINNING_OF_SEQUENCE'
p1065
S'(0, 0, 0)'
p1066
S'(0, 0, 0)'
p1067
S'END_OF_SEQUENCE'
p1068
S'BEGINNING_OF_SEQUENCE'
p1069
S'(0, 0, 0)'
p1070
S'(0, 0, 12)'
p1071
S'(0, 12, 0)'
p1072
S'(12, 0, -17)'
p1073
S'END_OF_SEQUENCE'
p1074
S'BEGINNING_OF_SEQUENCE'
p1075
S'(0, 0, 0)'
p1076
S'END_OF_SEQUENCE'
p1077
S'BEGINNING_OF_SEQUENCE'
p1078
S'(0, 0, 0)'
p1079
S'END_OF_SEQUENCE'
p1080
S'BEGINNING_OF_SEQUENCE'
p1081
S'(0, 0, 0)'
p1082
S'(0, 0, -15)'
p1083
S'END_OF_SEQUENCE'
p1084
S'BEGINNING_OF_SEQUENCE'
p1085
S'(0, 0, 0)'
p1086
S'(0, 0, -24)'
p1087
S'(0, -24, 19)'
p1088
S'(-24, 19, -2)'
p1089
S'END_OF_SEQUENCE'
p1090
S'BEGINNING_OF_SEQUENCE'
p1091
S'(0, 0, 0)'
p1092
S'(0, 0, 0)'
p1093
S'(0, 0, -17)'
p1094
S'END_OF_SEQUENCE'
p1095
S'BEGINNING_OF_SEQUENCE'
p1096
S'(0, 0, 0)'
p1097
S'END_OF_SEQUENCE'
p1098
S'BEGINNING_OF_SEQUENCE'
p1099
S'(0, 0, 0)'
p1100
S'(0, 0, -3)'
p1101
S'(0, -3, 0)'
p1102
S'(-3, 0, -7)'
p1103
S'(0, -7, -12)'
p1104
S'(-7, -12, -2)'
p1105
S'(-12, -2, 7)'
p1106
S'END_OF_SEQUENCE'
p1107
S'BEGINNING_OF_SEQUENCE'
p1108
S'(0, 0, 0)'
p1109
S'(0, 0, 0)'
p1110
S'END_OF_SEQUENCE'
p1111
S'BEGINNING_OF_SEQUENCE'
p1112
S'(0, 0, 0)'
p1113
S'(0, 0, 12)'
p1114
S'(0, 12, 0)'
p1115
S'END_OF_SEQUENCE'
p1116
S'BEGINNING_OF_SEQUENCE'
p1117
S'(0, 0, 0)'
p1118
S'(0, 0, -12)'
p1119
S'(0, -12, 9)'
p1120
S'END_OF_SEQUENCE'
p1121
S'BEGINNING_OF_SEQUENCE'
p1122
S'(0, 0, 0)'
p1123
S'(0, 0, 12)'
p1124
S'END_OF_SEQUENCE'
p1125
S'BEGINNING_OF_SEQUENCE'
p1126
S'(0, 0, 0)'
p1127
S'(0, 0, -14)'
p1128
S'END_OF_SEQUENCE'
p1129
S'BEGINNING_OF_SEQUENCE'
p1130
S'(0, 0, 0)'
p1131
S'(0, 0, -12)'
p1132
S'(0, -12, 10)'
p1133
S'(-12, 10, -12)'
p1134
S'(10, -12, 11)'
p1135
S'(-12, 11, -12)'
p1136
S'(11, -12, 10)'
p1137
S'(-12, 10, -12)'
p1138
S'(10, -12, 12)'
p1139
S'END_OF_SEQUENCE'
p1140
S'BEGINNING_OF_SEQUENCE'
p1141
S'(0, 0, 0)'
p1142
S'(0, 0, 17)'
p1143
S'(0, 17, -5)'
p1144
S'(17, -5, 9)'
p1145
S'(-5, 9, -16)'
p1146
S'(9, -16, 12)'
p1147
S'(-16, 12, -3)'
p1148
S'(12, -3, 3)'
p1149
S'(-3, 3, -17)'
p1150
S'(3, -17, 17)'
p1151
S'(-17, 17, -5)'
p1152
S'(17, -5, 9)'
p1153
S'(-5, 9, -14)'
p1154
S'(9, -14, 10)'
p1155
S'(-14, 10, -3)'
p1156
S'(10, -3, -2)'
p1157
S'END_OF_SEQUENCE'
p1158
S'BEGINNING_OF_SEQUENCE'
p1159
S'(0, 0, 0)'
p1160
S'(0, 0, -12)'
p1161
S'(0, -12, 12)'
p1162
S'(-12, 12, -17)'
p1163
S'(12, -17, 2)'
p1164
S'(-17, 2, 2)'
p1165
S'END_OF_SEQUENCE'
p1166
S'BEGINNING_OF_SEQUENCE'
p1167
S'(0, 0, 0)'
p1168
S'(0, 0, -12)'
p1169
S'END_OF_SEQUENCE'
p1170
S'BEGINNING_OF_SEQUENCE'
p1171
S'(0, 0, 0)'
p1172
S'(0, 0, 0)'
p1173
S'END_OF_SEQUENCE'
p1174
S'BEGINNING_OF_SEQUENCE'
p1175
S'(0, 0, 0)'
p1176
S'(0, 0, 12)'
p1177
S'(0, 12, 0)'
p1178
S'(12, 0, -17)'
p1179
S'END_OF_SEQUENCE'
p1180
S'BEGINNING_OF_SEQUENCE'
p1181
S'(0, 0, 0)'
p1182
S'END_OF_SEQUENCE'
p1183
S'BEGINNING_OF_SEQUENCE'
p1184
S'(0, 0, 0)'
p1185
S'END_OF_SEQUENCE'
p1186
S'BEGINNING_OF_SEQUENCE'
p1187
S'(0, 0, 0)'
p1188
S'(0, 0, -15)'
p1189
S'END_OF_SEQUENCE'
p1190
S'BEGINNING_OF_SEQUENCE'
p1191
S'(0, 0, 0)'
p1192
S'(0, 0, -24)'
p1193
S'(0, -24, 19)'
p1194
S'(-24, 19, -2)'
p1195
S'END_OF_SEQUENCE'
p1196
S'BEGINNING_OF_SEQUENCE'
p1197
S'(0, 0, 0)'
p1198
S'(0, 0, 0)'
p1199
S'(0, 0, -17)'
p1200
S'END_OF_SEQUENCE'
p1201
S'BEGINNING_OF_SEQUENCE'
p1202
S'(0, 0, 0)'
p1203
S'END_OF_SEQUENCE'
p1204
S'BEGINNING_OF_SEQUENCE'
p1205
S'(0, 0, 0)'
p1206
S'(0, 0, -3)'
p1207
S'(0, -3, 0)'
p1208
S'(-3, 0, -7)'
p1209
S'(0, -7, -12)'
p1210
S'END_OF_SEQUENCE'
p1211
S'BEGINNING_OF_SEQUENCE'
p1212
S'(0, 0, 0)'
p1213
S'END_OF_SEQUENCE'
p1214
S'BEGINNING_OF_SEQUENCE'
p1215
S'(0, 0, 0)'
p1216
S'(0, 0, -17)'
p1217
S'(0, -17, 12)'
p1218
S'(-17, 12, 5)'
p1219
S'END_OF_SEQUENCE'
p1220
S'BEGINNING_OF_SEQUENCE'
p1221
S'(0, 0, 0)'
p1222
S'(0, 0, 0)'
p1223
S'(0, 0, -9)'
p1224
S'END_OF_SEQUENCE'
p1225
S'BEGINNING_OF_SEQUENCE'
p1226
S'(0, 0, 0)'
p1227
S'(0, 0, -12)'
p1228
S'(0, -12, 7)'
p1229
S'END_OF_SEQUENCE'
p1230
S'BEGINNING_OF_SEQUENCE'
p1231
S'(0, 0, 0)'
p1232
S'(0, 0, -12)'
p1233
S'END_OF_SEQUENCE'
p1234
S'BEGINNING_OF_SEQUENCE'
p1235
S'(0, 0, 0)'
p1236
S'(0, 0, 0)'
p1237
S'END_OF_SEQUENCE'
p1238
S'BEGINNING_OF_SEQUENCE'
p1239
S'(0, 0, 0)'
p1240
S'(0, 0, 12)'
p1241
S'(0, 12, 0)'
p1242
S'(12, 0, -17)'
p1243
S'END_OF_SEQUENCE'
p1244
S'BEGINNING_OF_SEQUENCE'
p1245
S'(0, 0, 0)'
p1246
S'END_OF_SEQUENCE'
p1247
S'BEGINNING_OF_SEQUENCE'
p1248
S'(0, 0, 0)'
p1249
S'END_OF_SEQUENCE'
p1250
S'BEGINNING_OF_SEQUENCE'
p1251
S'(0, 0, 0)'
p1252
S'(0, 0, -15)'
p1253
S'END_OF_SEQUENCE'
p1254
S'BEGINNING_OF_SEQUENCE'
p1255
S'(0, 0, 0)'
p1256
S'(0, 0, -24)'
p1257
S'(0, -24, 19)'
p1258
S'(-24, 19, -2)'
p1259
S'END_OF_SEQUENCE'
p1260
S'BEGINNING_OF_SEQUENCE'
p1261
S'(0, 0, 0)'
p1262
S'(0, 0, 0)'
p1263
S'(0, 0, -17)'
p1264
S'END_OF_SEQUENCE'
p1265
S'BEGINNING_OF_SEQUENCE'
p1266
S'(0, 0, 0)'
p1267
S'END_OF_SEQUENCE'
p1268
S'BEGINNING_OF_SEQUENCE'
p1269
S'(0, 0, 0)'
p1270
S'END_OF_SEQUENCE'
p1271
S'BEGINNING_OF_SEQUENCE'
p1272
S'(0, 0, 0)'
p1273
S'END_OF_SEQUENCE'
p1274
S'BEGINNING_OF_SEQUENCE'
p1275
S'(0, 0, 0)'
p1276
S'(0, 0, 2)'
p1277
S'(0, 2, -7)'
p1278
S'(2, -7, -2)'
p1279
S'(-7, -2, 5)'
p1280
S'(-2, 5, 2)'
p1281
S'(5, 2, 2)'
p1282
S'(2, 2, -7)'
p1283
S'(2, -7, -2)'
p1284
S'(-7, -2, 5)'
p1285
S'(-2, 5, 2)'
p1286
S'(5, 2, 2)'
p1287
S'(2, 2, -7)'
p1288
S'(2, -7, -2)'
p1289
S'(-7, -2, 5)'
p1290
S'(-2, 5, 0)'
p1291
S'(5, 0, -2)'
p1292
S'(0, -2, -3)'
p1293
S'(-2, -3, -2)'
p1294
S'(-3, -2, -2)'
p1295
S'(-2, -2, 1)'
p1296
S'(-2, 1, -4)'
p1297
S'(1, -4, -2)'
p1298
S'(-4, -2, 14)'
p1299
S'(-2, 14, -2)'
p1300
S'(14, -2, -3)'
p1301
S'(-2, -3, -2)'
p1302
S'(-3, -2, -1)'
p1303
S'(-2, -1, 3)'
p1304
S'(-1, 3, 5)'
p1305
S'(3, 5, -2)'
p1306
S'(5, -2, -3)'
p1307
S'(-2, -3, -2)'
p1308
S'(-3, -2, -2)'
p1309
S'(-2, -2, 1)'
p1310
S'(-2, 1, -4)'
p1311
S'END_OF_SEQUENCE'
p1312
S'BEGINNING_OF_SEQUENCE'
p1313
S'(0, 0, 0)'
p1314
S'END_OF_SEQUENCE'
p1315
S'BEGINNING_OF_SEQUENCE'
p1316
S'(0, 0, 0)'
p1317
S'(0, 0, -12)'
p1318
S'(0, -12, -1)'
p1319
S'(-12, -1, -1)'
p1320
S'(-1, -1, -1)'
p1321
S'(-1, -1, -1)'
p1322
S'(-1, -1, -1)'
p1323
S'(-1, -1, -4)'
p1324
S'(-1, -4, 2)'
p1325
S'END_OF_SEQUENCE'
p1326
S'BEGINNING_OF_SEQUENCE'
p1327
S'(0, 0, 0)'
p1328
S'(0, 0, -2)'
p1329
S'END_OF_SEQUENCE'
p1330
S'BEGINNING_OF_SEQUENCE'
p1331
S'(0, 0, 0)'
p1332
S'(0, 0, -2)'
p1333
S'END_OF_SEQUENCE'
p1334
S'BEGINNING_OF_SEQUENCE'
p1335
S'(0, 0, 0)'
p1336
S'(0, 0, -2)'
p1337
S'END_OF_SEQUENCE'
p1338
S'BEGINNING_OF_SEQUENCE'
p1339
S'(0, 0, 0)'
p1340
S'(0, 0, -2)'
p1341
S'END_OF_SEQUENCE'
p1342
S'BEGINNING_OF_SEQUENCE'
p1343
S'(0, 0, 0)'
p1344
S'(0, 0, -2)'
p1345
S'END_OF_SEQUENCE'
p1346
S'BEGINNING_OF_SEQUENCE'
p1347
S'(0, 0, 0)'
p1348
S'(0, 0, -2)'
p1349
S'END_OF_SEQUENCE'
p1350
S'BEGINNING_OF_SEQUENCE'
p1351
S'(0, 0, 0)'
p1352
S'(0, 0, -2)'
p1353
S'END_OF_SEQUENCE'
p1354
S'BEGINNING_OF_SEQUENCE'
p1355
S'(0, 0, 0)'
p1356
S'(0, 0, -2)'
p1357
S'END_OF_SEQUENCE'
p1358
S'BEGINNING_OF_SEQUENCE'
p1359
S'(0, 0, 0)'
p1360
S'(0, 0, -2)'
p1361
S'END_OF_SEQUENCE'
p1362
S'BEGINNING_OF_SEQUENCE'
p1363
S'(0, 0, 0)'
p1364
S'(0, 0, -2)'
p1365
S'END_OF_SEQUENCE'
p1366
S'BEGINNING_OF_SEQUENCE'
p1367
S'(0, 0, 0)'
p1368
S'(0, 0, -2)'
p1369
S'END_OF_SEQUENCE'
p1370
S'BEGINNING_OF_SEQUENCE'
p1371
S'(0, 0, 0)'
p1372
S'(0, 0, -2)'
p1373
S'END_OF_SEQUENCE'
p1374
S'BEGINNING_OF_SEQUENCE'
p1375
S'(0, 0, 0)'
p1376
S'(0, 0, -2)'
p1377
S'END_OF_SEQUENCE'
p1378
S'BEGINNING_OF_SEQUENCE'
p1379
S'(0, 0, 0)'
p1380
S'(0, 0, -2)'
p1381
S'END_OF_SEQUENCE'
p1382
S'BEGINNING_OF_SEQUENCE'
p1383
S'(0, 0, 0)'
p1384
S'(0, 0, -2)'
p1385
S'END_OF_SEQUENCE'
p1386
S'BEGINNING_OF_SEQUENCE'
p1387
S'(0, 0, 0)'
p1388
S'(0, 0, -2)'
p1389
S'END_OF_SEQUENCE'
p1390
S'BEGINNING_OF_SEQUENCE'
p1391
S'(0, 0, 0)'
p1392
S'(0, 0, -2)'
p1393
S'END_OF_SEQUENCE'
p1394
S'BEGINNING_OF_SEQUENCE'
p1395
S'(0, 0, 0)'
p1396
S'(0, 0, -2)'
p1397
S'END_OF_SEQUENCE'
p1398
S'BEGINNING_OF_SEQUENCE'
p1399
S'(0, 0, 0)'
p1400
S'(0, 0, -2)'
p1401
S'END_OF_SEQUENCE'
p1402
S'BEGINNING_OF_SEQUENCE'
p1403
S'(0, 0, 0)'
p1404
S'(0, 0, -2)'
p1405
S'END_OF_SEQUENCE'
p1406
S'BEGINNING_OF_SEQUENCE'
p1407
S'(0, 0, 0)'
p1408
S'(0, 0, -2)'
p1409
S'END_OF_SEQUENCE'
p1410
S'BEGINNING_OF_SEQUENCE'
p1411
S'(0, 0, 0)'
p1412
S'(0, 0, -2)'
p1413
S'END_OF_SEQUENCE'
p1414
S'BEGINNING_OF_SEQUENCE'
p1415
S'(0, 0, 0)'
p1416
S'(0, 0, 0)'
p1417
S'(0, 0, 0)'
p1418
S'(0, 0, 5)'
p1419
S'(0, 5, 0)'
p1420
S'(5, 0, 2)'
p1421
S'(0, 2, -2)'
p1422
S'(2, -2, -2)'
p1423
S'(-2, -2, -3)'
p1424
S'(-2, -3, 5)'
p1425
S'(-3, 5, 2)'
p1426
S'(5, 2, 5)'
p1427
S'(2, 5, -2)'
p1428
S'(5, -2, -3)'
p1429
S'(-2, -3, -2)'
p1430
S'(-3, -2, 0)'
p1431
S'(-2, 0, -2)'
p1432
S'(0, -2, 0)'
p1433
S'(-2, 0, -3)'
p1434
S'(0, -3, -2)'
p1435
S'(-3, -2, -3)'
p1436
S'(-2, -3, 3)'
p1437
S'(-3, 3, 2)'
p1438
S'(3, 2, 3)'
p1439
S'(2, 3, 1)'
p1440
S'(3, 1, 3)'
p1441
S'(1, 3, 5)'
p1442
S'(3, 5, -2)'
p1443
S'(5, -2, 0)'
p1444
S'(-2, 0, -3)'
p1445
S'(0, -3, -1)'
p1446
S'(-3, -1, -1)'
p1447
S'(-1, -1, -2)'
p1448
S'(-1, -2, 1)'
p1449
S'(-2, 1, 3)'
p1450
S'END_OF_SEQUENCE'
p1451
S'BEGINNING_OF_SEQUENCE'
p1452
S'(0, 0, 0)'
p1453
S'(0, 0, -5)'
p1454
S'(0, -5, 2)'
p1455
S'(-5, 2, -2)'
p1456
S'(2, -2, -2)'
p1457
S'(-2, -2, -2)'
p1458
S'(-2, -2, 0)'
p1459
S'(-2, 0, -3)'
p1460
S'(0, -3, 3)'
p1461
S'(-3, 3, 2)'
p1462
S'(3, 2, -5)'
p1463
S'(2, -5, 3)'
p1464
S'(-5, 3, 2)'
p1465
S'(3, 2, -5)'
p1466
S'(2, -5, 3)'
p1467
S'(-5, 3, 2)'
p1468
S'(3, 2, -5)'
p1469
S'(2, -5, 3)'
p1470
S'(-5, 3, 2)'
p1471
S'(3, 2, -5)'
p1472
S'(2, -5, 3)'
p1473
S'(-5, 3, 2)'
p1474
S'(3, 2, 0)'
p1475
S'(2, 0, -2)'
p1476
S'(0, -2, 2)'
p1477
S'(-2, 2, -2)'
p1478
S'(2, -2, -3)'
p1479
S'(-2, -3, 3)'
p1480
S'(-3, 3, 1)'
p1481
S'END_OF_SEQUENCE'
p1482
S'BEGINNING_OF_SEQUENCE'
p1483
S'(0, 0, 0)'
p1484
S'(0, 0, -1)'
p1485
S'(0, -1, -2)'
p1486
S'(-1, -2, -1)'
p1487
S'(-2, -1, -1)'
p1488
S'(-1, -1, -2)'
p1489
S'(-1, -2, 1)'
p1490
S'(-2, 1, 3)'
p1491
S'(1, 3, 5)'
p1492
S'(3, 5, 2)'
p1493
S'(5, 2, 0)'
p1494
S'(2, 0, -2)'
p1495
S'(0, -2, -3)'
p1496
S'(-2, -3, 0)'
p1497
S'(-3, 0, 0)'
p1498
S'(0, 0, -2)'
p1499
S'(0, -2, 2)'
p1500
S'(-2, 2, 3)'
p1501
S'(2, 3, 3)'
p1502
S'(3, 3, 0)'
p1503
S'(3, 0, -3)'
p1504
S'(0, -3, -5)'
p1505
S'(-3, -5, -2)'
p1506
S'(-5, -2, 0)'
p1507
S'(-2, 0, 0)'
p1508
S'(0, 0, -10)'
p1509
S'(0, -10, 3)'
p1510
S'(-10, 3, 2)'
p1511
S'(3, 2, 3)'
p1512
S'(2, 3, 4)'
p1513
S'(3, 4, -2)'
p1514
S'(4, -2, -2)'
p1515
S'(-2, -2, -8)'
p1516
S'(-2, -8, 3)'
p1517
S'(-8, 3, 2)'
p1518
S'(3, 2, 3)'
p1519
S'(2, 3, -3)'
p1520
S'(3, -3, 4)'
p1521
S'(-3, 4, 3)'
p1522
S'(4, 3, 5)'
p1523
S'(3, 5, -2)'
p1524
S'(5, -2, -3)'
p1525
S'(-2, -3, -2)'
p1526
S'(-3, -2, -2)'
p1527
S'(-2, -2, 1)'
p1528
S'END_OF_SEQUENCE'
p1529
S'BEGINNING_OF_SEQUENCE'
p1530
S'(0, 0, 0)'
p1531
S'(0, 0, 0)'
p1532
S'(0, 0, -2)'
p1533
S'(0, -2, -3)'
p1534
S'END_OF_SEQUENCE'
p1535
S'BEGINNING_OF_SEQUENCE'
p1536
S'(0, 0, 0)'
p1537
S'END_OF_SEQUENCE'
p1538
S'BEGINNING_OF_SEQUENCE'
p1539
S'(0, 0, 0)'
p1540
S'(0, 0, 5)'
p1541
S'(0, 5, 3)'
p1542
S'(5, 3, 2)'
p1543
S'(3, 2, 0)'
p1544
S'(2, 0, 0)'
p1545
S'(0, 0, -2)'
p1546
S'(0, -2, 2)'
p1547
S'(-2, 2, 0)'
p1548
S'(2, 0, 2)'
p1549
S'(0, 2, -2)'
p1550
S'(2, -2, 0)'
p1551
S'(-2, 0, 2)'
p1552
S'(0, 2, -2)'
p1553
S'(2, -2, 2)'
p1554
S'(-2, 2, -2)'
p1555
S'(2, -2, 2)'
p1556
S'(-2, 2, -2)'
p1557
S'(2, -2, 2)'
p1558
S'(-2, 2, -2)'
p1559
S'(2, -2, 0)'
p1560
S'(-2, 0, -2)'
p1561
S'(0, -2, 1)'
p1562
S'(-2, 1, 3)'
p1563
S'(1, 3, 2)'
p1564
S'(3, 2, 3)'
p1565
S'(2, 3, 2)'
p1566
S'(3, 2, -2)'
p1567
S'(2, -2, 2)'
p1568
S'(-2, 2, -2)'
p1569
S'(2, -2, -3)'
p1570
S'(-2, -3, -2)'
p1571
S'(-3, -2, 5)'
p1572
S'(-2, 5, -2)'
p1573
S'(5, -2, -1)'
p1574
S'(-2, -1, -2)'
p1575
S'(-1, -2, -1)'
p1576
S'(-2, -1, -1)'
p1577
S'(-1, -1, -2)'
p1578
S'(-1, -2, 1)'
p1579
S'(-2, 1, 3)'
p1580
S'(1, 3, 3)'
p1581
S'(3, 3, 2)'
p1582
S'(3, 2, 2)'
p1583
S'(2, 2, -7)'
p1584
S'(2, -7, -12)'
p1585
S'(-7, -12, 3)'
p1586
S'(-12, 3, 2)'
p1587
S'(3, 2, 3)'
p1588
S'(2, 3, 4)'
p1589
S'(3, 4, -2)'
p1590
S'(4, -2, -2)'
p1591
S'(-2, -2, -3)'
p1592
S'(-2, -3, -5)'
p1593
S'(-3, -5, 3)'
p1594
S'(-5, 3, 2)'
p1595
S'(3, 2, 3)'
p1596
S'(2, 3, -3)'
p1597
S'(3, -3, 4)'
p1598
S'(-3, 4, 3)'
p1599
S'(4, 3, 5)'
p1600
S'(3, 5, -2)'
p1601
S'(5, -2, -3)'
p1602
S'(-2, -3, -2)'
p1603
S'(-3, -2, -2)'
p1604
S'(-2, -2, 1)'
p1605
S'(-2, 1, 3)'
p1606
S'(1, 3, 5)'
p1607
S'(3, 5, 0)'
p1608
S'(5, 0, -2)'
p1609
S'(0, -2, -3)'
p1610
S'(-2, -3, 0)'
p1611
S'END_OF_SEQUENCE'
p1612
S'BEGINNING_OF_SEQUENCE'
p1613
S'(0, 0, 0)'
p1614
S'END_OF_SEQUENCE'
p1615
S'BEGINNING_OF_SEQUENCE'
p1616
S'(0, 0, 0)'
p1617
S'(0, 0, 2)'
p1618
S'(0, 2, 3)'
p1619
S'(2, 3, -2)'
p1620
S'(3, -2, -3)'
p1621
S'(-2, -3, -2)'
p1622
S'(-3, -2, -2)'
p1623
S'(-2, -2, 0)'
p1624
S'(-2, 0, -3)'
p1625
S'(0, -3, 3)'
p1626
S'(-3, 3, -1)'
p1627
S'(3, -1, 0)'
p1628
S'END_OF_SEQUENCE'
p1629
S'BEGINNING_OF_SEQUENCE'
p1630
S'(0, 0, 0)'
p1631
S'(0, 0, 2)'
p1632
S'(0, 2, 5)'
p1633
S'(2, 5, -2)'
p1634
S'(5, -2, -3)'
p1635
S'(-2, -3, -2)'
p1636
S'(-3, -2, -2)'
p1637
S'(-2, -2, -3)'
p1638
S'(-2, -3, 4)'
p1639
S'(-3, 4, 3)'
p1640
S'(4, 3, 5)'
p1641
S'(3, 5, -2)'
p1642
S'(5, -2, 0)'
p1643
S'(-2, 0, -3)'
p1644
S'END_OF_SEQUENCE'
p1645
S'BEGINNING_OF_SEQUENCE'
p1646
S'(0, 0, 0)'
p1647
S'(0, 0, 2)'
p1648
S'(0, 2, 5)'
p1649
S'(2, 5, -2)'
p1650
S'(5, -2, -3)'
p1651
S'(-2, -3, -2)'
p1652
S'(-3, -2, -2)'
p1653
S'(-2, -2, 0)'
p1654
S'(-2, 0, -3)'
p1655
S'(0, -3, 3)'
p1656
S'(-3, 3, 1)'
p1657
S'(3, 1, 3)'
p1658
S'(1, 3, -8)'
p1659
S'END_OF_SEQUENCE'
p1660
S'BEGINNING_OF_SEQUENCE'
p1661
S'(0, 0, 0)'
p1662
S'END_OF_SEQUENCE'
p1663
S'BEGINNING_OF_SEQUENCE'
p1664
S'(0, 0, 0)'
p1665
S'(0, 0, -5)'
p1666
S'(0, -5, 0)'
p1667
S'(-5, 0, 2)'
p1668
S'(0, 2, 3)'
p1669
S'(2, 3, -5)'
p1670
S'(3, -5, -2)'
p1671
S'(-5, -2, -2)'
p1672
S'(-2, -2, -3)'
p1673
S'END_OF_SEQUENCE'
p1674
S'BEGINNING_OF_SEQUENCE'
p1675
S'(0, 0, 0)'
p1676
S'(0, 0, 3)'
p1677
S'(0, 3, 2)'
p1678
S'(3, 2, 3)'
p1679
S'(2, 3, -2)'
p1680
S'(3, -2, -3)'
p1681
S'(-2, -3, -2)'
p1682
S'(-3, -2, -2)'
p1683
S'(-2, -2, 1)'
p1684
S'(-2, 1, -4)'
p1685
S'(1, -4, 3)'
p1686
S'(-4, 3, 1)'
p1687
S'(3, 1, 3)'
p1688
S'(1, 3, 0)'
p1689
S'(3, 0, -14)'
p1690
S'(0, -14, 7)'
p1691
S'(-14, 7, 4)'
p1692
S'(7, 4, -4)'
p1693
S'(4, -4, 4)'
p1694
S'(-4, 4, -4)'
p1695
S'END_OF_SEQUENCE'
p1696
S'BEGINNING_OF_SEQUENCE'
p1697
S'(0, 0, 0)'
p1698
S'(0, 0, 3)'
p1699
S'(0, 3, 5)'
p1700
S'(3, 5, -5)'
p1701
S'(5, -5, -2)'
p1702
S'(-5, -2, 2)'
p1703
S'(-2, 2, -2)'
p1704
S'(2, -2, -2)'
p1705
S'(-2, -2, 1)'
p1706
S'END_OF_SEQUENCE'
p1707
S'BEGINNING_OF_SEQUENCE'
p1708
S'(0, 0, 0)'
p1709
S'(0, 0, 1)'
p1710
S'(0, 1, 3)'
p1711
S'(1, 3, -3)'
p1712
S'END_OF_SEQUENCE'
p1713
S'BEGINNING_OF_SEQUENCE'
p1714
S'(0, 0, 0)'
p1715
S'(0, 0, 0)'
p1716
S'END_OF_SEQUENCE'
p1717
S'BEGINNING_OF_SEQUENCE'
p1718
S'(0, 0, 0)'
p1719
S'(0, 0, 3)'
p1720
S'(0, 3, 5)'
p1721
S'(3, 5, -2)'
p1722
S'(5, -2, -3)'
p1723
S'(-2, -3, -2)'
p1724
S'(-3, -2, 2)'
p1725
S'(-2, 2, -2)'
p1726
S'(2, -2, -2)'
p1727
S'(-2, -2, 1)'
p1728
S'(-2, 1, -4)'
p1729
S'(1, -4, 3)'
p1730
S'(-4, 3, 1)'
p1731
S'(3, 1, 3)'
p1732
S'END_OF_SEQUENCE'
p1733
S'BEGINNING_OF_SEQUENCE'
p1734
S'(0, 0, 0)'
p1735
S'(0, 0, -1)'
p1736
S'(0, -1, 1)'
p1737
S'(-1, 1, 1)'
p1738
S'(1, 1, 1)'
p1739
S'(1, 1, 1)'
p1740
S'(1, 1, 2)'
p1741
S'END_OF_SEQUENCE'
p1742
S'BEGINNING_OF_SEQUENCE'
p1743
S'(0, 0, 0)'
p1744
S'END_OF_SEQUENCE'
p1745
S'BEGINNING_OF_SEQUENCE'
p1746
S'(0, 0, 0)'
p1747
S'(0, 0, 0)'
p1748
S'(0, 0, -2)'
p1749
S'END_OF_SEQUENCE'
p1750
S'BEGINNING_OF_SEQUENCE'
p1751
S'(0, 0, 0)'
p1752
S'END_OF_SEQUENCE'
p1753
S'BEGINNING_OF_SEQUENCE'
p1754
S'(0, 0, 0)'
p1755
S'END_OF_SEQUENCE'
p1756
S'BEGINNING_OF_SEQUENCE'
p1757
S'(0, 0, 0)'
p1758
S'END_OF_SEQUENCE'
p1759
S'BEGINNING_OF_SEQUENCE'
p1760
S'(0, 0, 0)'
p1761
S'(0, 0, 3)'
p1762
S'(0, 3, -3)'
p1763
S'END_OF_SEQUENCE'
p1764
S'BEGINNING_OF_SEQUENCE'
p1765
S'(0, 0, 0)'
p1766
S'(0, 0, 3)'
p1767
S'END_OF_SEQUENCE'
p1768
S'BEGINNING_OF_SEQUENCE'
p1769
S'(0, 0, 0)'
p1770
S'(0, 0, -3)'
p1771
S'END_OF_SEQUENCE'
p1772
S'BEGINNING_OF_SEQUENCE'
p1773
S'(0, 0, 0)'
p1774
S'END_OF_SEQUENCE'
p1775
S'BEGINNING_OF_SEQUENCE'
p1776
S'(0, 0, 0)'
p1777
S'(0, 0, 3)'
p1778
S'(0, 3, -3)'
p1779
S'(3, -3, 7)'
p1780
S'(-3, 7, 5)'
p1781
S'(7, 5, 0)'
p1782
S'(5, 0, 0)'
p1783
S'(0, 0, -2)'
p1784
S'(0, -2, -3)'
p1785
S'END_OF_SEQUENCE'
p1786
S'BEGINNING_OF_SEQUENCE'
p1787
S'(0, 0, 0)'
p1788
S'END_OF_SEQUENCE'
p1789
S'BEGINNING_OF_SEQUENCE'
p1790
S'(0, 0, 0)'
p1791
S'END_OF_SEQUENCE'
p1792
S'BEGINNING_OF_SEQUENCE'
p1793
S'(0, 0, 0)'
p1794
S'(0, 0, 3)'
p1795
S'(0, 3, -3)'
p1796
S'(3, -3, 5)'
p1797
S'(-3, 5, 2)'
p1798
S'(5, 2, 3)'
p1799
S'(2, 3, 2)'
p1800
S'(3, 2, -5)'
p1801
S'(2, -5, 3)'
p1802
S'END_OF_SEQUENCE'
p1803
S'BEGINNING_OF_SEQUENCE'
p1804
S'(0, 0, 0)'
p1805
S'(0, 0, -3)'
p1806
S'END_OF_SEQUENCE'
p1807
S'BEGINNING_OF_SEQUENCE'
p1808
S'(0, 0, 0)'
p1809
S'END_OF_SEQUENCE'
p1810
S'BEGINNING_OF_SEQUENCE'
p1811
S'(0, 0, 0)'
p1812
S'(0, 0, -7)'
p1813
S'END_OF_SEQUENCE'
p1814
S'BEGINNING_OF_SEQUENCE'
p1815
S'(0, 0, 0)'
p1816
S'(0, 0, -2)'
p1817
S'(0, -2, -10)'
p1818
S'(-2, -10, 7)'
p1819
S'(-10, 7, 5)'
p1820
S'END_OF_SEQUENCE'
p1821
S'BEGINNING_OF_SEQUENCE'
p1822
S'(0, 0, 0)'
p1823
S'(0, 0, 1)'
p1824
S'(0, 1, -4)'
p1825
S'END_OF_SEQUENCE'
p1826
S'BEGINNING_OF_SEQUENCE'
p1827
S'(0, 0, 0)'
p1828
S'END_OF_SEQUENCE'
p1829
S'BEGINNING_OF_SEQUENCE'
p1830
S'(0, 0, 0)'
p1831
S'(0, 0, 3)'
p1832
S'(0, 3, 1)'
p1833
S'END_OF_SEQUENCE'
p1834
S'BEGINNING_OF_SEQUENCE'
p1835
S'(0, 0, 0)'
p1836
S'END_OF_SEQUENCE'
p1837
S'BEGINNING_OF_SEQUENCE'
p1838
S'(0, 0, 0)'
p1839
S'END_OF_SEQUENCE'
p1840
S'BEGINNING_OF_SEQUENCE'
p1841
S'(0, 0, 0)'
p1842
S'END_OF_SEQUENCE'
p1843
S'BEGINNING_OF_SEQUENCE'
p1844
S'(0, 0, 0)'
p1845
S'END_OF_SEQUENCE'
p1846
S'BEGINNING_OF_SEQUENCE'
p1847
S'(0, 0, 0)'
p1848
S'(0, 0, 7)'
p1849
S'(0, 7, 5)'
p1850
S'(7, 5, -13)'
p1851
S'(5, -13, 8)'
p1852
S'(-13, 8, 14)'
p1853
S'(8, 14, -2)'
p1854
S'(14, -2, -5)'
p1855
S'(-2, -5, -12)'
p1856
S'(-5, -12, 0)'
p1857
S'END_OF_SEQUENCE'
p1858
S'BEGINNING_OF_SEQUENCE'
p1859
S'(0, 0, 0)'
p1860
S'(0, 0, -4)'
p1861
S'END_OF_SEQUENCE'
p1862
S'BEGINNING_OF_SEQUENCE'
p1863
S'(0, 0, 0)'
p1864
S'END_OF_SEQUENCE'
p1865
S'BEGINNING_OF_SEQUENCE'
p1866
S'(0, 0, 0)'
p1867
S'(0, 0, 1)'
p1868
S'END_OF_SEQUENCE'
p1869
S'BEGINNING_OF_SEQUENCE'
p1870
S'(0, 0, 0)'
p1871
S'END_OF_SEQUENCE'
p1872
S'BEGINNING_OF_SEQUENCE'
p1873
S'(0, 0, 0)'
p1874
S'(0, 0, 7)'
p1875
S'(0, 7, 7)'
p1876
S'(7, 7, -7)'
p1877
S'(7, -7, 0)'
p1878
S'END_OF_SEQUENCE'
p1879
S'BEGINNING_OF_SEQUENCE'
p1880
S'(0, 0, 0)'
p1881
S'(0, 0, -5)'
p1882
S'END_OF_SEQUENCE'
p1883
S'BEGINNING_OF_SEQUENCE'
p1884
S'(0, 0, 0)'
p1885
S'END_OF_SEQUENCE'
p1886
S'BEGINNING_OF_SEQUENCE'
p1887
S'(0, 0, 0)'
p1888
S'(0, 0, 4)'
p1889
S'(0, 4, 3)'
p1890
S'(4, 3, -3)'
p1891
S'END_OF_SEQUENCE'
p1892
S'BEGINNING_OF_SEQUENCE'
p1893
S'(0, 0, 0)'
p1894
S'(0, 0, -3)'
p1895
S'END_OF_SEQUENCE'
p1896
S'BEGINNING_OF_SEQUENCE'
p1897
S'(0, 0, 0)'
p1898
S'END_OF_SEQUENCE'
p1899
S'BEGINNING_OF_SEQUENCE'
p1900
S'(0, 0, 0)'
p1901
S'(0, 0, -10)'
p1902
S'END_OF_SEQUENCE'
p1903
S'BEGINNING_OF_SEQUENCE'
p1904
S'(0, 0, 0)'
p1905
S'END_OF_SEQUENCE'
p1906
S'BEGINNING_OF_SEQUENCE'
p1907
S'(0, 0, 0)'
p1908
S'(0, 0, -3)'
p1909
S'END_OF_SEQUENCE'
p1910
S'BEGINNING_OF_SEQUENCE'
p1911
S'(0, 0, 0)'
p1912
S'END_OF_SEQUENCE'
p1913
S'BEGINNING_OF_SEQUENCE'
p1914
S'(0, 0, 0)'
p1915
S'(0, 0, 3)'
p1916
S'(0, 3, 1)'
p1917
S'END_OF_SEQUENCE'
p1918
S'BEGINNING_OF_SEQUENCE'
p1919
S'(0, 0, 0)'
p1920
S'END_OF_SEQUENCE'
p1921
S'BEGINNING_OF_SEQUENCE'
p1922
S'(0, 0, 0)'
p1923
S'END_OF_SEQUENCE'
p1924
S'BEGINNING_OF_SEQUENCE'
p1925
S'(0, 0, 0)'
p1926
S'END_OF_SEQUENCE'
p1927
S'BEGINNING_OF_SEQUENCE'
p1928
S'(0, 0, 0)'
p1929
S'END_OF_SEQUENCE'
p1930
S'BEGINNING_OF_SEQUENCE'
p1931
S'(0, 0, 0)'
p1932
S'(0, 0, 7)'
p1933
S'(0, 7, 5)'
p1934
S'(7, 5, -13)'
p1935
S'(5, -13, 8)'
p1936
S'(-13, 8, 14)'
p1937
S'(8, 14, -2)'
p1938
S'(14, -2, -5)'
p1939
S'(-2, -5, -12)'
p1940
S'(-5, -12, 0)'
p1941
S'END_OF_SEQUENCE'
p1942
S'BEGINNING_OF_SEQUENCE'
p1943
S'(0, 0, 0)'
p1944
S'(0, 0, -4)'
p1945
S'END_OF_SEQUENCE'
p1946
S'BEGINNING_OF_SEQUENCE'
p1947
S'(0, 0, 0)'
p1948
S'END_OF_SEQUENCE'
p1949
S'BEGINNING_OF_SEQUENCE'
p1950
S'(0, 0, 0)'
p1951
S'(0, 0, 1)'
p1952
S'END_OF_SEQUENCE'
p1953
S'BEGINNING_OF_SEQUENCE'
p1954
S'(0, 0, 0)'
p1955
S'END_OF_SEQUENCE'
p1956
S'BEGINNING_OF_SEQUENCE'
p1957
S'(0, 0, 0)'
p1958
S'(0, 0, 7)'
p1959
S'(0, 7, 7)'
p1960
S'(7, 7, -7)'
p1961
S'(7, -7, 0)'
p1962
S'END_OF_SEQUENCE'
p1963
S'BEGINNING_OF_SEQUENCE'
p1964
S'(0, 0, 0)'
p1965
S'(0, 0, -5)'
p1966
S'END_OF_SEQUENCE'
p1967
S'BEGINNING_OF_SEQUENCE'
p1968
S'(0, 0, 0)'
p1969
S'END_OF_SEQUENCE'
p1970
S'BEGINNING_OF_SEQUENCE'
p1971
S'(0, 0, 0)'
p1972
S'(0, 0, 0)'
p1973
S'(0, 0, 0)'
p1974
S'(0, 0, 0)'
p1975
S'(0, 0, 0)'
p1976
S'(0, 0, -3)'
p1977
S'(0, -3, -2)'
p1978
S'(-3, -2, 0)'
p1979
S'(-2, 0, -2)'
p1980
S'(0, -2, 2)'
p1981
S'(-2, 2, 5)'
p1982
S'(2, 5, -5)'
p1983
S'(5, -5, 0)'
p1984
S'(-5, 0, -2)'
p1985
S'(0, -2, 2)'
p1986
S'(-2, 2, -2)'
p1987
S'(2, -2, 1)'
p1988
S'(-2, 1, -1)'
p1989
S'(1, -1, 0)'
p1990
S'(-1, 0, 2)'
p1991
S'(0, 2, -2)'
p1992
S'(2, -2, -3)'
p1993
S'(-2, -3, 3)'
p1994
S'(-3, 3, -3)'
p1995
S'(3, -3, -3)'
p1996
S'(-3, -3, 3)'
p1997
S'(-3, 3, -3)'
p1998
S'(3, -3, 5)'
p1999
S'(-3, 5, 3)'
p2000
S'(5, 3, 0)'
p2001
S'(3, 0, -2)'
p2002
S'(0, -2, 2)'
p2003
S'(-2, 2, -2)'
p2004
S'(2, -2, -3)'
p2005
S'(-2, -3, -2)'
p2006
S'(-3, -2, -5)'
p2007
S'(-2, -5, -2)'
p2008
S'(-5, -2, -3)'
p2009
S'(-2, -3, 0)'
p2010
S'(-3, 0, 10)'
p2011
S'(0, 10, 5)'
p2012
S'(10, 5, -5)'
p2013
S'(5, -5, 0)'
p2014
S'(-5, 0, 2)'
p2015
S'(0, 2, -5)'
p2016
S'(2, -5, 3)'
p2017
S'(-5, 3, -3)'
p2018
S'(3, -3, 0)'
p2019
S'(-3, 0, 3)'
p2020
S'(0, 3, -5)'
p2021
S'(3, -5, -2)'
p2022
S'(-5, -2, -3)'
p2023
S'END_OF_SEQUENCE'
p2024
S'BEGINNING_OF_SEQUENCE'
p2025
S'(0, 0, 0)'
p2026
S'END_OF_SEQUENCE'
p2027
S'BEGINNING_OF_SEQUENCE'
p2028
S'(0, 0, 0)'
p2029
S'(0, 0, -5)'
p2030
S'(0, -5, 3)'
p2031
S'(-5, 3, 0)'
p2032
S'(3, 0, 19)'
p2033
S'(0, 19, 0)'
p2034
S'(19, 0, 0)'
p2035
S'(0, 0, 5)'
p2036
S'(0, 5, -3)'
p2037
S'(5, -3, -2)'
p2038
S'(-3, -2, 0)'
p2039
S'(-2, 0, 0)'
p2040
S'(0, 0, -2)'
p2041
S'(0, -2, 2)'
p2042
S'(-2, 2, -2)'
p2043
S'(2, -2, -3)'
p2044
S'(-2, -3, -2)'
p2045
S'(-3, -2, -3)'
p2046
S'(-2, -3, 3)'
p2047
S'(-3, 3, 1)'
p2048
S'(3, 1, 1)'
p2049
S'END_OF_SEQUENCE'
p2050
S'BEGINNING_OF_SEQUENCE'
p2051
S'(0, 0, 0)'
p2052
S'(0, 0, -2)'
p2053
S'(0, -2, 2)'
p2054
S'(-2, 2, -2)'
p2055
S'END_OF_SEQUENCE'
p2056
S'BEGINNING_OF_SEQUENCE'
p2057
S'(0, 0, 0)'
p2058
S'(0, 0, 10)'
p2059
S'(0, 10, 0)'
p2060
S'(10, 0, 0)'
p2061
S'(0, 0, 0)'
p2062
S'(0, 0, 0)'
p2063
S'(0, 0, 0)'
p2064
S'(0, 0, -3)'
p2065
S'(0, -3, -2)'
p2066
S'(-3, -2, -2)'
p2067
S'(-2, -2, -3)'
p2068
S'(-2, -3, -2)'
p2069
S'(-3, -2, -3)'
p2070
S'(-2, -3, 15)'
p2071
S'(-3, 15, 0)'
p2072
S'(15, 0, 0)'
p2073
S'(0, 0, 0)'
p2074
S'(0, 0, 0)'
p2075
S'(0, 0, 5)'
p2076
S'(0, 5, -5)'
p2077
S'(5, -5, 0)'
p2078
S'(-5, 0, 0)'
p2079
S'(0, 0, 0)'
p2080
S'(0, 0, 0)'
p2081
S'(0, 0, 2)'
p2082
S'(0, 2, -2)'
p2083
S'(2, -2, -3)'
p2084
S'(-2, -3, -2)'
p2085
S'(-3, -2, 0)'
p2086
S'(-2, 0, -2)'
p2087
S'(0, -2, -3)'
p2088
S'(-2, -3, 0)'
p2089
S'END_OF_SEQUENCE'
p2090
S'BEGINNING_OF_SEQUENCE'
p2091
S'(0, 0, 0)'
p2092
S'(0, 0, 0)'
p2093
S'(0, 0, 5)'
p2094
S'(0, 5, -5)'
p2095
S'(5, -5, -2)'
p2096
S'(-5, -2, 2)'
p2097
S'(-2, 2, -2)'
p2098
S'(2, -2, -3)'
p2099
S'(-2, -3, -2)'
p2100
S'(-3, -2, -3)'
p2101
S'(-2, -3, 5)'
p2102
S'(-3, 5, -5)'
p2103
S'(5, -5, 3)'
p2104
S'(-5, 3, -5)'
p2105
S'(3, -5, -2)'
p2106
S'(-5, -2, -3)'
p2107
S'(-2, -3, -2)'
p2108
S'(-3, -2, -5)'
p2109
S'(-2, -5, -2)'
p2110
S'(-5, -2, 1)'
p2111
S'(-2, 1, 8)'
p2112
S'(1, 8, 0)'
p2113
S'(8, 0, 0)'
p2114
S'END_OF_SEQUENCE'
p2115
S'BEGINNING_OF_SEQUENCE'
p2116
S'(0, 0, 0)'
p2117
S'(0, 0, 0)'
p2118
S'(0, 0, 3)'
p2119
S'(0, 3, 0)'
p2120
S'(3, 0, 2)'
p2121
S'(0, 2, 0)'
p2122
S'(2, 0, 0)'
p2123
S'(0, 0, 0)'
p2124
S'(0, 0, -2)'
p2125
S'(0, -2, 0)'
p2126
S'(-2, 0, 0)'
p2127
S'(0, 0, -5)'
p2128
S'(0, -5, 3)'
p2129
S'(-5, 3, -3)'
p2130
S'(3, -3, 0)'
p2131
S'(-3, 0, 3)'
p2132
S'(0, 3, -5)'
p2133
S'(3, -5, -2)'
p2134
S'END_OF_SEQUENCE'
p2135
S'BEGINNING_OF_SEQUENCE'
p2136
S'(0, 0, 0)'
p2137
S'(0, 0, 0)'
p2138
S'(0, 0, 0)'
p2139
S'(0, 0, -17)'
p2140
S'(0, -17, 3)'
p2141
S'(-17, 3, -1)'
p2142
S'(3, -1, -2)'
p2143
S'(-1, -2, 0)'
p2144
S'END_OF_SEQUENCE'
p2145
S'BEGINNING_OF_SEQUENCE'
p2146
S'(0, 0, 0)'
p2147
S'(0, 0, 2)'
p2148
S'(0, 2, 3)'
p2149
S'(2, 3, -3)'
p2150
S'(3, -3, -2)'
p2151
S'(-3, -2, -2)'
p2152
S'(-2, -2, -3)'
p2153
S'(-2, -3, 0)'
p2154
S'END_OF_SEQUENCE'
p2155
S'BEGINNING_OF_SEQUENCE'
p2156
S'(0, 0, 0)'
p2157
S'(0, 0, 2)'
p2158
S'(0, 2, 2)'
p2159
S'(2, 2, -2)'
p2160
S'(2, -2, 5)'
p2161
S'(-2, 5, 0)'
p2162
S'(5, 0, 2)'
p2163
S'(0, 2, -2)'
p2164
S'(2, -2, 4)'
p2165
S'(-2, 4, 3)'
p2166
S'(4, 3, -3)'
p2167
S'(3, -3, -2)'
p2168
S'(-3, -2, -2)'
p2169
S'(-2, -2, 9)'
p2170
S'(-2, 9, 0)'
p2171
S'(9, 0, -5)'
p2172
S'(0, -5, 5)'
p2173
S'(-5, 5, 0)'
p2174
S'(5, 0, 0)'
p2175
S'(0, 0, 3)'
p2176
S'END_OF_SEQUENCE'
p2177
S'BEGINNING_OF_SEQUENCE'
p2178
S'(0, 0, 0)'
p2179
S'(0, 0, 3)'
p2180
S'(0, 3, -3)'
p2181
S'END_OF_SEQUENCE'
p2182
S'BEGINNING_OF_SEQUENCE'
p2183
S'(0, 0, 0)'
p2184
S'(0, 0, -3)'
p2185
S'END_OF_SEQUENCE'
p2186
S'BEGINNING_OF_SEQUENCE'
p2187
S'(0, 0, 0)'
p2188
S'(0, 0, 3)'
p2189
S'(0, 3, -3)'
p2190
S'(3, -3, 5)'
p2191
S'(-3, 5, 2)'
p2192
S'(5, 2, 3)'
p2193
S'(2, 3, 2)'
p2194
S'(3, 2, 3)'
p2195
S'(2, 3, -3)'
p2196
S'(3, -3, -5)'
p2197
S'(-3, -5, 5)'
p2198
S'(-5, 5, -2)'
p2199
S'END_OF_SEQUENCE'
p2200
S'BEGINNING_OF_SEQUENCE'
p2201
S'(0, 0, 0)'
p2202
S'(0, 0, -3)'
p2203
S'END_OF_SEQUENCE'
p2204
S'BEGINNING_OF_SEQUENCE'
p2205
S'(0, 0, 0)'
p2206
S'END_OF_SEQUENCE'
p2207
S'BEGINNING_OF_SEQUENCE'
p2208
S'(0, 0, 0)'
p2209
S'(0, 0, -10)'
p2210
S'END_OF_SEQUENCE'
p2211
S'BEGINNING_OF_SEQUENCE'
p2212
S'(0, 0, 0)'
p2213
S'END_OF_SEQUENCE'
p2214
S'BEGINNING_OF_SEQUENCE'
p2215
S'(0, 0, 0)'
p2216
S'(0, 0, 3)'
p2217
S'(0, 3, 1)'
p2218
S'END_OF_SEQUENCE'
p2219
S'BEGINNING_OF_SEQUENCE'
p2220
S'(0, 0, 0)'
p2221
S'END_OF_SEQUENCE'
p2222
S'BEGINNING_OF_SEQUENCE'
p2223
S'(0, 0, 0)'
p2224
S'END_OF_SEQUENCE'
p2225
S'BEGINNING_OF_SEQUENCE'
p2226
S'(0, 0, 0)'
p2227
S'END_OF_SEQUENCE'
p2228
S'BEGINNING_OF_SEQUENCE'
p2229
S'(0, 0, 0)'
p2230
S'END_OF_SEQUENCE'
p2231
S'BEGINNING_OF_SEQUENCE'
p2232
S'(0, 0, 0)'
p2233
S'(0, 0, 7)'
p2234
S'(0, 7, 5)'
p2235
S'(7, 5, -13)'
p2236
S'(5, -13, 8)'
p2237
S'(-13, 8, 14)'
p2238
S'(8, 14, -2)'
p2239
S'(14, -2, -5)'
p2240
S'(-2, -5, -12)'
p2241
S'(-5, -12, 0)'
p2242
S'END_OF_SEQUENCE'
p2243
S'BEGINNING_OF_SEQUENCE'
p2244
S'(0, 0, 0)'
p2245
S'(0, 0, -4)'
p2246
S'END_OF_SEQUENCE'
p2247
S'BEGINNING_OF_SEQUENCE'
p2248
S'(0, 0, 0)'
p2249
S'END_OF_SEQUENCE'
p2250
S'BEGINNING_OF_SEQUENCE'
p2251
S'(0, 0, 0)'
p2252
S'(0, 0, 1)'
p2253
S'END_OF_SEQUENCE'
p2254
S'BEGINNING_OF_SEQUENCE'
p2255
S'(0, 0, 0)'
p2256
S'END_OF_SEQUENCE'
p2257
S'BEGINNING_OF_SEQUENCE'
p2258
S'(0, 0, 0)'
p2259
S'(0, 0, 7)'
p2260
S'(0, 7, 7)'
p2261
S'(7, 7, -7)'
p2262
S'(7, -7, 0)'
p2263
S'END_OF_SEQUENCE'
p2264
S'BEGINNING_OF_SEQUENCE'
p2265
S'(0, 0, 0)'
p2266
S'(0, 0, -5)'
p2267
S'END_OF_SEQUENCE'
p2268
S'BEGINNING_OF_SEQUENCE'
p2269
S'(0, 0, 0)'
p2270
S'END_OF_SEQUENCE'
p2271
S'BEGINNING_OF_SEQUENCE'
p2272
S'(0, 0, 0)'
p2273
S'(0, 0, 4)'
p2274
S'(0, 4, 3)'
p2275
S'(4, 3, -3)'
p2276
S'(3, -3, 5)'
p2277
S'(-3, 5, -2)'
p2278
S'(5, -2, -3)'
p2279
S'END_OF_SEQUENCE'
p2280
S'BEGINNING_OF_SEQUENCE'
p2281
S'(0, 0, 0)'
p2282
S'END_OF_SEQUENCE'
p2283
S'BEGINNING_OF_SEQUENCE'
p2284
S'(0, 0, 0)'
p2285
S'(0, 0, 0)'
p2286
S'(0, 0, 0)'
p2287
S'END_OF_SEQUENCE'
p2288
S'BEGINNING_OF_SEQUENCE'
p2289
S'(0, 0, 0)'
p2290
S'(0, 0, 3)'
p2291
S'(0, 3, -3)'
p2292
S'(3, -3, 5)'
p2293
S'(-3, 5, 2)'
p2294
S'(5, 2, 3)'
p2295
S'(2, 3, 2)'
p2296
S'(3, 2, 3)'
p2297
S'(2, 3, -3)'
p2298
S'(3, -3, -5)'
p2299
S'(-3, -5, 5)'
p2300
S'(-5, 5, -2)'
p2301
S'END_OF_SEQUENCE'
p2302
S'BEGINNING_OF_SEQUENCE'
p2303
S'(0, 0, 0)'
p2304
S'(0, 0, -3)'
p2305
S'(0, -3, 0)'
p2306
S'(-3, 0, 0)'
p2307
S'END_OF_SEQUENCE'
p2308
S'BEGINNING_OF_SEQUENCE'
p2309
S'(0, 0, 0)'
p2310
S'(0, 0, -2)'
p2311
S'(0, -2, 2)'
p2312
S'(-2, 2, 12)'
p2313
S'END_OF_SEQUENCE'
p2314
S'BEGINNING_OF_SEQUENCE'
p2315
S'(0, 0, 0)'
p2316
S'(0, 0, -3)'
p2317
S'(0, -3, -2)'
p2318
S'(-3, -2, -3)'
p2319
S'(-2, -3, 3)'
p2320
S'(-3, 3, 2)'
p2321
S'(3, 2, 3)'
p2322
S'(2, 3, 2)'
p2323
S'(3, 2, -2)'
p2324
S'(2, -2, -5)'
p2325
S'(-2, -5, -17)'
p2326
S'END_OF_SEQUENCE'
p2327
S'BEGINNING_OF_SEQUENCE'
p2328
S'(0, 0, 0)'
p2329
S'(0, 0, 3)'
p2330
S'(0, 3, -3)'
p2331
S'(3, -3, 5)'
p2332
S'(-3, 5, 2)'
p2333
S'(5, 2, 0)'
p2334
S'(2, 0, 3)'
p2335
S'END_OF_SEQUENCE'
p2336
S'BEGINNING_OF_SEQUENCE'
p2337
S'(0, 0, 0)'
p2338
S'END_OF_SEQUENCE'
p2339
S'BEGINNING_OF_SEQUENCE'
p2340
S'(0, 0, 0)'
p2341
S'END_OF_SEQUENCE'
p2342
S'BEGINNING_OF_SEQUENCE'
p2343
S'(0, 0, 0)'
p2344
S'(0, 0, 0)'
p2345
S'(0, 0, 0)'
p2346
S'(0, 0, 0)'
p2347
S'END_OF_SEQUENCE'
p2348
S'BEGINNING_OF_SEQUENCE'
p2349
S'(0, 0, 0)'
p2350
S'END_OF_SEQUENCE'
p2351
S'BEGINNING_OF_SEQUENCE'
p2352
S'(0, 0, 0)'
p2353
S'(0, 0, -2)'
p2354
S'(0, -2, 9)'
p2355
S'(-2, 9, -2)'
p2356
S'(9, -2, 0)'
p2357
S'(-2, 0, 2)'
p2358
S'END_OF_SEQUENCE'
p2359
S'BEGINNING_OF_SEQUENCE'
p2360
S'(0, 0, 0)'
p2361
S'(0, 0, -2)'
p2362
S'(0, -2, 2)'
p2363
S'(-2, 2, -12)'
p2364
S'END_OF_SEQUENCE'
p2365
S'BEGINNING_OF_SEQUENCE'
p2366
S'(0, 0, 0)'
p2367
S'END_OF_SEQUENCE'
p2368
S'BEGINNING_OF_SEQUENCE'
p2369
S'(0, 0, 0)'
p2370
S'(0, 0, -2)'
p2371
S'(0, -2, 9)'
p2372
S'(-2, 9, -2)'
p2373
S'(9, -2, 0)'
p2374
S'(-2, 0, 2)'
p2375
S'END_OF_SEQUENCE'
p2376
S'BEGINNING_OF_SEQUENCE'
p2377
S'(0, 0, 0)'
p2378
S'(0, 0, -2)'
p2379
S'(0, -2, 2)'
p2380
S'(-2, 2, -12)'
p2381
S'END_OF_SEQUENCE'
p2382
S'BEGINNING_OF_SEQUENCE'
p2383
S'(0, 0, 0)'
p2384
S'END_OF_SEQUENCE'
p2385
S'BEGINNING_OF_SEQUENCE'
p2386
S'(0, 0, 0)'
p2387
S'(0, 0, 9)'
p2388
S'(0, 9, -7)'
p2389
S'END_OF_SEQUENCE'
p2390
S'BEGINNING_OF_SEQUENCE'
p2391
S'(0, 0, 0)'
p2392
S'END_OF_SEQUENCE'
p2393
S'BEGINNING_OF_SEQUENCE'
p2394
S'(0, 0, 0)'
p2395
S'(0, 0, 5)'
p2396
S'(0, 5, -5)'
p2397
S'(5, -5, 0)'
p2398
S'(-5, 0, -2)'
p2399
S'(0, -2, 2)'
p2400
S'END_OF_SEQUENCE'
p2401
S'BEGINNING_OF_SEQUENCE'
p2402
S'(0, 0, 0)'
p2403
S'(0, 0, 0)'
p2404
S'(0, 0, 9)'
p2405
S'(0, 9, 0)'
p2406
S'(9, 0, 0)'
p2407
S'(0, 0, -2)'
p2408
S'(0, -2, -3)'
p2409
S'(-2, -3, -2)'
p2410
S'(-3, -2, -2)'
p2411
S'(-2, -2, -3)'
p2412
S'(-2, -3, -5)'
p2413
S'(-3, -5, 12)'
p2414
S'END_OF_SEQUENCE'
p2415
S'BEGINNING_OF_SEQUENCE'
p2416
S'(0, 0, 0)'
p2417
S'END_OF_SEQUENCE'
p2418
S'BEGINNING_OF_SEQUENCE'
p2419
S'(0, 0, 0)'
p2420
S'END_OF_SEQUENCE'
p2421
S'BEGINNING_OF_SEQUENCE'
p2422
S'(0, 0, 0)'
p2423
S'(0, 0, -2)'
p2424
S'(0, -2, -2)'
p2425
S'(-2, -2, 2)'
p2426
S'(-2, 2, -2)'
p2427
S'(2, -2, -3)'
p2428
S'(-2, -3, 0)'
p2429
S'END_OF_SEQUENCE'
p2430
S'BEGINNING_OF_SEQUENCE'
p2431
S'(0, 0, 0)'
p2432
S'END_OF_SEQUENCE'
p2433
S'BEGINNING_OF_SEQUENCE'
p2434
S'(0, 0, 0)'
p2435
S'END_OF_SEQUENCE'
p2436
S'BEGINNING_OF_SEQUENCE'
p2437
S'(0, 0, 0)'
p2438
S'END_OF_SEQUENCE'
p2439
S'BEGINNING_OF_SEQUENCE'
p2440
S'(0, 0, 0)'
p2441
S'END_OF_SEQUENCE'
p2442
S'BEGINNING_OF_SEQUENCE'
p2443
S'(0, 0, 0)'
p2444
S'END_OF_SEQUENCE'
p2445
S'BEGINNING_OF_SEQUENCE'
p2446
S'(0, 0, 0)'
p2447
S'END_OF_SEQUENCE'
p2448
S'BEGINNING_OF_SEQUENCE'
p2449
S'(0, 0, 0)'
p2450
S'END_OF_SEQUENCE'
p2451
S'BEGINNING_OF_SEQUENCE'
p2452
S'(0, 0, 0)'
p2453
S'END_OF_SEQUENCE'
p2454
S'BEGINNING_OF_SEQUENCE'
p2455
S'(0, 0, 0)'
p2456
S'END_OF_SEQUENCE'
p2457
S'BEGINNING_OF_SEQUENCE'
p2458
S'(0, 0, 0)'
p2459
S'END_OF_SEQUENCE'
p2460
S'BEGINNING_OF_SEQUENCE'
p2461
S'(0, 0, 0)'
p2462
S'END_OF_SEQUENCE'
p2463
S'BEGINNING_OF_SEQUENCE'
p2464
S'(0, 0, 0)'
p2465
S'END_OF_SEQUENCE'
p2466
S'BEGINNING_OF_SEQUENCE'
p2467
S'(0, 0, 0)'
p2468
S'END_OF_SEQUENCE'
p2469
S'BEGINNING_OF_SEQUENCE'
p2470
S'(0, 0, 0)'
p2471
S'END_OF_SEQUENCE'
p2472
S'BEGINNING_OF_SEQUENCE'
p2473
S'(0, 0, 0)'
p2474
S'END_OF_SEQUENCE'
p2475
S'BEGINNING_OF_SEQUENCE'
p2476
S'(0, 0, 0)'
p2477
S'END_OF_SEQUENCE'
p2478
S'BEGINNING_OF_SEQUENCE'
p2479
S'(0, 0, 0)'
p2480
S'END_OF_SEQUENCE'
p2481
S'BEGINNING_OF_SEQUENCE'
p2482
S'(0, 0, 0)'
p2483
S'END_OF_SEQUENCE'
p2484
S'BEGINNING_OF_SEQUENCE'
p2485
S'(0, 0, 0)'
p2486
S'END_OF_SEQUENCE'
p2487
S'BEGINNING_OF_SEQUENCE'
p2488
S'(0, 0, 0)'
p2489
S'END_OF_SEQUENCE'
p2490
S'BEGINNING_OF_SEQUENCE'
p2491
S'(0, 0, 0)'
p2492
S'END_OF_SEQUENCE'
p2493
S'BEGINNING_OF_SEQUENCE'
p2494
S'(0, 0, 0)'
p2495
S'(0, 0, -2)'
p2496
S'END_OF_SEQUENCE'
p2497
S'BEGINNING_OF_SEQUENCE'
p2498
S'(0, 0, 0)'
p2499
S'END_OF_SEQUENCE'
p2500
S'BEGINNING_OF_SEQUENCE'
p2501
S'(0, 0, 0)'
p2502
S'END_OF_SEQUENCE'
p2503
S'BEGINNING_OF_SEQUENCE'
p2504
S'(0, 0, 0)'
p2505
S'(0, 0, -5)'
p2506
S'END_OF_SEQUENCE'
p2507
S'BEGINNING_OF_SEQUENCE'
p2508
S'(0, 0, 0)'
p2509
S'END_OF_SEQUENCE'
p2510
S'BEGINNING_OF_SEQUENCE'
p2511
S'(0, 0, 0)'
p2512
S'END_OF_SEQUENCE'
p2513
S'BEGINNING_OF_SEQUENCE'
p2514
S'(0, 0, 0)'
p2515
S'END_OF_SEQUENCE'
p2516
S'BEGINNING_OF_SEQUENCE'
p2517
S'(0, 0, 0)'
p2518
S'END_OF_SEQUENCE'
p2519
S'BEGINNING_OF_SEQUENCE'
p2520
S'(0, 0, 0)'
p2521
S'END_OF_SEQUENCE'
p2522
S'BEGINNING_OF_SEQUENCE'
p2523
S'(0, 0, 0)'
p2524
S'END_OF_SEQUENCE'
p2525
S'BEGINNING_OF_SEQUENCE'
p2526
S'(0, 0, 0)'
p2527
S'END_OF_SEQUENCE'
p2528
S'BEGINNING_OF_SEQUENCE'
p2529
S'(0, 0, 0)'
p2530
S'END_OF_SEQUENCE'
p2531
S'BEGINNING_OF_SEQUENCE'
p2532
S'(0, 0, 0)'
p2533
S'END_OF_SEQUENCE'
p2534
S'BEGINNING_OF_SEQUENCE'
p2535
S'(0, 0, 0)'
p2536
S'END_OF_SEQUENCE'
p2537
S'BEGINNING_OF_SEQUENCE'
p2538
S'(0, 0, 0)'
p2539
S'END_OF_SEQUENCE'
p2540
S'BEGINNING_OF_SEQUENCE'
p2541
S'(0, 0, 0)'
p2542
S'END_OF_SEQUENCE'
p2543
S'BEGINNING_OF_SEQUENCE'
p2544
S'(0, 0, 0)'
p2545
S'END_OF_SEQUENCE'
p2546
S'BEGINNING_OF_SEQUENCE'
p2547
S'(0, 0, 0)'
p2548
S'END_OF_SEQUENCE'
p2549
S'BEGINNING_OF_SEQUENCE'
p2550
S'(0, 0, 0)'
p2551
S'END_OF_SEQUENCE'
p2552
S'BEGINNING_OF_SEQUENCE'
p2553
S'(0, 0, 0)'
p2554
S'END_OF_SEQUENCE'
p2555
S'BEGINNING_OF_SEQUENCE'
p2556
S'(0, 0, 0)'
p2557
S'END_OF_SEQUENCE'
p2558
S'BEGINNING_OF_SEQUENCE'
p2559
S'(0, 0, 0)'
p2560
S'END_OF_SEQUENCE'
p2561
S'BEGINNING_OF_SEQUENCE'
p2562
S'(0, 0, 0)'
p2563
S'END_OF_SEQUENCE'
p2564
S'BEGINNING_OF_SEQUENCE'
p2565
S'(0, 0, 0)'
p2566
S'END_OF_SEQUENCE'
p2567
S'BEGINNING_OF_SEQUENCE'
p2568
S'(0, 0, 0)'
p2569
S'END_OF_SEQUENCE'
p2570
S'BEGINNING_OF_SEQUENCE'
p2571
S'(0, 0, 0)'
p2572
S'END_OF_SEQUENCE'
p2573
S'BEGINNING_OF_SEQUENCE'
p2574
S'(0, 0, 0)'
p2575
S'END_OF_SEQUENCE'
p2576
S'BEGINNING_OF_SEQUENCE'
p2577
S'(0, 0, 0)'
p2578
S'END_OF_SEQUENCE'
p2579
S'BEGINNING_OF_SEQUENCE'
p2580
S'(0, 0, 0)'
p2581
S'END_OF_SEQUENCE'
p2582
S'BEGINNING_OF_SEQUENCE'
p2583
S'(0, 0, 0)'
p2584
S'END_OF_SEQUENCE'
p2585
S'BEGINNING_OF_SEQUENCE'
p2586
S'(0, 0, 0)'
p2587
S'END_OF_SEQUENCE'
p2588
S'BEGINNING_OF_SEQUENCE'
p2589
S'(0, 0, 0)'
p2590
S'(0, 0, -2)'
p2591
S'END_OF_SEQUENCE'
p2592
S'BEGINNING_OF_SEQUENCE'
p2593
S'(0, 0, 0)'
p2594
S'END_OF_SEQUENCE'
p2595
S'BEGINNING_OF_SEQUENCE'
p2596
S'(0, 0, 0)'
p2597
S'END_OF_SEQUENCE'
p2598
S'BEGINNING_OF_SEQUENCE'
p2599
S'(0, 0, 0)'
p2600
S'(0, 0, -5)'
p2601
S'END_OF_SEQUENCE'
p2602
S'BEGINNING_OF_SEQUENCE'
p2603
S'(0, 0, 0)'
p2604
S'END_OF_SEQUENCE'
p2605
S'BEGINNING_OF_SEQUENCE'
p2606
S'(0, 0, 0)'
p2607
S'END_OF_SEQUENCE'
p2608
S'BEGINNING_OF_SEQUENCE'
p2609
S'(0, 0, 0)'
p2610
S'END_OF_SEQUENCE'
p2611
S'BEGINNING_OF_SEQUENCE'
p2612
S'(0, 0, 0)'
p2613
S'END_OF_SEQUENCE'
p2614
S'BEGINNING_OF_SEQUENCE'
p2615
S'(0, 0, 0)'
p2616
S'END_OF_SEQUENCE'
p2617
S'BEGINNING_OF_SEQUENCE'
p2618
S'(0, 0, 0)'
p2619
S'END_OF_SEQUENCE'
p2620
S'BEGINNING_OF_SEQUENCE'
p2621
S'(0, 0, 0)'
p2622
S'END_OF_SEQUENCE'
p2623
S'BEGINNING_OF_SEQUENCE'
p2624
S'(0, 0, 0)'
p2625
S'END_OF_SEQUENCE'
p2626
S'BEGINNING_OF_SEQUENCE'
p2627
S'(0, 0, 0)'
p2628
S'END_OF_SEQUENCE'
p2629
S'BEGINNING_OF_SEQUENCE'
p2630
S'(0, 0, 0)'
p2631
S'END_OF_SEQUENCE'
p2632
S'BEGINNING_OF_SEQUENCE'
p2633
S'(0, 0, 0)'
p2634
S'END_OF_SEQUENCE'
p2635
S'BEGINNING_OF_SEQUENCE'
p2636
S'(0, 0, 0)'
p2637
S'END_OF_SEQUENCE'
p2638
S'BEGINNING_OF_SEQUENCE'
p2639
S'(0, 0, 0)'
p2640
S'END_OF_SEQUENCE'
p2641
S'BEGINNING_OF_SEQUENCE'
p2642
S'(0, 0, 0)'
p2643
S'END_OF_SEQUENCE'
p2644
S'BEGINNING_OF_SEQUENCE'
p2645
S'(0, 0, 0)'
p2646
S'END_OF_SEQUENCE'
p2647
S'BEGINNING_OF_SEQUENCE'
p2648
S'(0, 0, 0)'
p2649
S'END_OF_SEQUENCE'
p2650
S'BEGINNING_OF_SEQUENCE'
p2651
S'(0, 0, 0)'
p2652
S'END_OF_SEQUENCE'
p2653
S'BEGINNING_OF_SEQUENCE'
p2654
S'(0, 0, 0)'
p2655
S'END_OF_SEQUENCE'
p2656
S'BEGINNING_OF_SEQUENCE'
p2657
S'(0, 0, 0)'
p2658
S'END_OF_SEQUENCE'
p2659
S'BEGINNING_OF_SEQUENCE'
p2660
S'(0, 0, 0)'
p2661
S'END_OF_SEQUENCE'
p2662
S'BEGINNING_OF_SEQUENCE'
p2663
S'(0, 0, 0)'
p2664
S'END_OF_SEQUENCE'
p2665
S'BEGINNING_OF_SEQUENCE'
p2666
S'(0, 0, 0)'
p2667
S'END_OF_SEQUENCE'
p2668
S'BEGINNING_OF_SEQUENCE'
p2669
S'(0, 0, 0)'
p2670
S'END_OF_SEQUENCE'
p2671
S'BEGINNING_OF_SEQUENCE'
p2672
S'(0, 0, 0)'
p2673
S'END_OF_SEQUENCE'
p2674
S'BEGINNING_OF_SEQUENCE'
p2675
S'(0, 0, 0)'
p2676
S'END_OF_SEQUENCE'
p2677
S'BEGINNING_OF_SEQUENCE'
p2678
S'(0, 0, 0)'
p2679
S'END_OF_SEQUENCE'
p2680
S'BEGINNING_OF_SEQUENCE'
p2681
S'(0, 0, 0)'
p2682
S'END_OF_SEQUENCE'
p2683
S'BEGINNING_OF_SEQUENCE'
p2684
S'(0, 0, 0)'
p2685
S'(0, 0, -2)'
p2686
S'END_OF_SEQUENCE'
p2687
S'BEGINNING_OF_SEQUENCE'
p2688
S'(0, 0, 0)'
p2689
S'END_OF_SEQUENCE'
p2690
S'BEGINNING_OF_SEQUENCE'
p2691
S'(0, 0, 0)'
p2692
S'END_OF_SEQUENCE'
p2693
S'BEGINNING_OF_SEQUENCE'
p2694
S'(0, 0, 0)'
p2695
S'(0, 0, -5)'
p2696
S'END_OF_SEQUENCE'
p2697
S'BEGINNING_OF_SEQUENCE'
p2698
S'(0, 0, 0)'
p2699
S'END_OF_SEQUENCE'
p2700
S'BEGINNING_OF_SEQUENCE'
p2701
S'(0, 0, 0)'
p2702
S'END_OF_SEQUENCE'
p2703
S'BEGINNING_OF_SEQUENCE'
p2704
S'(0, 0, 0)'
p2705
S'END_OF_SEQUENCE'
p2706
S'BEGINNING_OF_SEQUENCE'
p2707
S'(0, 0, 0)'
p2708
S'END_OF_SEQUENCE'
p2709
S'BEGINNING_OF_SEQUENCE'
p2710
S'(0, 0, 0)'
p2711
S'END_OF_SEQUENCE'
p2712
S'BEGINNING_OF_SEQUENCE'
p2713
S'(0, 0, 0)'
p2714
S'END_OF_SEQUENCE'
p2715
S'BEGINNING_OF_SEQUENCE'
p2716
S'(0, 0, 0)'
p2717
S'END_OF_SEQUENCE'
p2718
S'BEGINNING_OF_SEQUENCE'
p2719
S'(0, 0, 0)'
p2720
S'END_OF_SEQUENCE'
p2721
S'BEGINNING_OF_SEQUENCE'
p2722
S'(0, 0, 0)'
p2723
S'END_OF_SEQUENCE'
p2724
S'BEGINNING_OF_SEQUENCE'
p2725
S'(0, 0, 0)'
p2726
S'END_OF_SEQUENCE'
p2727
S'BEGINNING_OF_SEQUENCE'
p2728
S'(0, 0, 0)'
p2729
S'END_OF_SEQUENCE'
p2730
S'BEGINNING_OF_SEQUENCE'
p2731
S'(0, 0, 0)'
p2732
S'END_OF_SEQUENCE'
p2733
S'BEGINNING_OF_SEQUENCE'
p2734
S'(0, 0, 0)'
p2735
S'END_OF_SEQUENCE'
p2736
S'BEGINNING_OF_SEQUENCE'
p2737
S'(0, 0, 0)'
p2738
S'END_OF_SEQUENCE'
p2739
S'BEGINNING_OF_SEQUENCE'
p2740
S'(0, 0, 0)'
p2741
S'END_OF_SEQUENCE'
p2742
S'BEGINNING_OF_SEQUENCE'
p2743
S'(0, 0, 0)'
p2744
S'END_OF_SEQUENCE'
p2745
S'BEGINNING_OF_SEQUENCE'
p2746
S'(0, 0, 0)'
p2747
S'END_OF_SEQUENCE'
p2748
S'BEGINNING_OF_SEQUENCE'
p2749
S'(0, 0, 0)'
p2750
S'END_OF_SEQUENCE'
p2751
S'BEGINNING_OF_SEQUENCE'
p2752
S'(0, 0, 0)'
p2753
S'END_OF_SEQUENCE'
p2754
S'BEGINNING_OF_SEQUENCE'
p2755
S'(0, 0, 0)'
p2756
S'END_OF_SEQUENCE'
p2757
S'BEGINNING_OF_SEQUENCE'
p2758
S'(0, 0, 0)'
p2759
S'END_OF_SEQUENCE'
p2760
S'BEGINNING_OF_SEQUENCE'
p2761
S'(0, 0, 0)'
p2762
S'END_OF_SEQUENCE'
p2763
S'BEGINNING_OF_SEQUENCE'
p2764
S'(0, 0, 0)'
p2765
S'END_OF_SEQUENCE'
p2766
S'BEGINNING_OF_SEQUENCE'
p2767
S'(0, 0, 0)'
p2768
S'END_OF_SEQUENCE'
p2769
S'BEGINNING_OF_SEQUENCE'
p2770
S'(0, 0, 0)'
p2771
S'END_OF_SEQUENCE'
p2772
S'BEGINNING_OF_SEQUENCE'
p2773
S'(0, 0, 0)'
p2774
S'END_OF_SEQUENCE'
p2775
S'BEGINNING_OF_SEQUENCE'
p2776
S'(0, 0, 0)'
p2777
S'END_OF_SEQUENCE'
p2778
S'BEGINNING_OF_SEQUENCE'
p2779
S'(0, 0, 0)'
p2780
S'(0, 0, -2)'
p2781
S'END_OF_SEQUENCE'
p2782
S'BEGINNING_OF_SEQUENCE'
p2783
S'(0, 0, 0)'
p2784
S'END_OF_SEQUENCE'
p2785
S'BEGINNING_OF_SEQUENCE'
p2786
S'(0, 0, 0)'
p2787
S'END_OF_SEQUENCE'
p2788
S'BEGINNING_OF_SEQUENCE'
p2789
S'(0, 0, 0)'
p2790
S'(0, 0, -5)'
p2791
S'END_OF_SEQUENCE'
p2792
S'BEGINNING_OF_SEQUENCE'
p2793
S'(0, 0, 0)'
p2794
S'END_OF_SEQUENCE'
p2795
S'BEGINNING_OF_SEQUENCE'
p2796
S'(0, 0, 0)'
p2797
S'END_OF_SEQUENCE'
p2798
S'BEGINNING_OF_SEQUENCE'
p2799
S'(0, 0, 0)'
p2800
S'END_OF_SEQUENCE'
p2801
S'BEGINNING_OF_SEQUENCE'
p2802
S'(0, 0, 0)'
p2803
S'END_OF_SEQUENCE'
p2804
S'BEGINNING_OF_SEQUENCE'
p2805
S'(0, 0, 0)'
p2806
S'END_OF_SEQUENCE'
p2807
S'BEGINNING_OF_SEQUENCE'
p2808
S'(0, 0, 0)'
p2809
S'END_OF_SEQUENCE'
p2810
S'BEGINNING_OF_SEQUENCE'
p2811
S'(0, 0, 0)'
p2812
S'END_OF_SEQUENCE'
p2813
S'BEGINNING_OF_SEQUENCE'
p2814
S'(0, 0, 0)'
p2815
S'END_OF_SEQUENCE'
p2816
S'BEGINNING_OF_SEQUENCE'
p2817
S'(0, 0, 0)'
p2818
S'END_OF_SEQUENCE'
p2819
S'BEGINNING_OF_SEQUENCE'
p2820
S'(0, 0, 0)'
p2821
S'END_OF_SEQUENCE'
p2822
S'BEGINNING_OF_SEQUENCE'
p2823
S'(0, 0, 0)'
p2824
S'END_OF_SEQUENCE'
p2825
S'BEGINNING_OF_SEQUENCE'
p2826
S'(0, 0, 0)'
p2827
S'END_OF_SEQUENCE'
p2828
S'BEGINNING_OF_SEQUENCE'
p2829
S'(0, 0, 0)'
p2830
S'END_OF_SEQUENCE'
p2831
S'BEGINNING_OF_SEQUENCE'
p2832
S'(0, 0, 0)'
p2833
S'END_OF_SEQUENCE'
p2834
S'BEGINNING_OF_SEQUENCE'
p2835
S'(0, 0, 0)'
p2836
S'END_OF_SEQUENCE'
p2837
S'BEGINNING_OF_SEQUENCE'
p2838
S'(0, 0, 0)'
p2839
S'END_OF_SEQUENCE'
p2840
S'BEGINNING_OF_SEQUENCE'
p2841
S'(0, 0, 0)'
p2842
S'END_OF_SEQUENCE'
p2843
S'BEGINNING_OF_SEQUENCE'
p2844
S'(0, 0, 0)'
p2845
S'END_OF_SEQUENCE'
p2846
S'BEGINNING_OF_SEQUENCE'
p2847
S'(0, 0, 0)'
p2848
S'END_OF_SEQUENCE'
p2849
S'BEGINNING_OF_SEQUENCE'
p2850
S'(0, 0, 0)'
p2851
S'END_OF_SEQUENCE'
p2852
S'BEGINNING_OF_SEQUENCE'
p2853
S'(0, 0, 0)'
p2854
S'END_OF_SEQUENCE'
p2855
S'BEGINNING_OF_SEQUENCE'
p2856
S'(0, 0, 0)'
p2857
S'END_OF_SEQUENCE'
p2858
S'BEGINNING_OF_SEQUENCE'
p2859
S'(0, 0, 0)'
p2860
S'END_OF_SEQUENCE'
p2861
S'BEGINNING_OF_SEQUENCE'
p2862
S'(0, 0, 0)'
p2863
S'END_OF_SEQUENCE'
p2864
S'BEGINNING_OF_SEQUENCE'
p2865
S'(0, 0, 0)'
p2866
S'END_OF_SEQUENCE'
p2867
S'BEGINNING_OF_SEQUENCE'
p2868
S'(0, 0, 0)'
p2869
S'END_OF_SEQUENCE'
p2870
S'BEGINNING_OF_SEQUENCE'
p2871
S'(0, 0, 0)'
p2872
S'END_OF_SEQUENCE'
p2873
S'BEGINNING_OF_SEQUENCE'
p2874
S'(0, 0, 0)'
p2875
S'(0, 0, -2)'
p2876
S'END_OF_SEQUENCE'
p2877
S'BEGINNING_OF_SEQUENCE'
p2878
S'(0, 0, 0)'
p2879
S'END_OF_SEQUENCE'
p2880
S'BEGINNING_OF_SEQUENCE'
p2881
S'(0, 0, 0)'
p2882
S'END_OF_SEQUENCE'
p2883
S'BEGINNING_OF_SEQUENCE'
p2884
S'(0, 0, 0)'
p2885
S'(0, 0, -5)'
p2886
S'END_OF_SEQUENCE'
p2887
S'BEGINNING_OF_SEQUENCE'
p2888
S'(0, 0, 0)'
p2889
S'END_OF_SEQUENCE'
p2890
S'BEGINNING_OF_SEQUENCE'
p2891
S'(0, 0, 0)'
p2892
S'END_OF_SEQUENCE'
p2893
S'BEGINNING_OF_SEQUENCE'
p2894
S'(0, 0, 0)'
p2895
S'END_OF_SEQUENCE'
p2896
S'BEGINNING_OF_SEQUENCE'
p2897
S'(0, 0, 0)'
p2898
S'END_OF_SEQUENCE'
p2899
S'BEGINNING_OF_SEQUENCE'
p2900
S'(0, 0, 0)'
p2901
S'END_OF_SEQUENCE'
p2902
S'BEGINNING_OF_SEQUENCE'
p2903
S'(0, 0, 0)'
p2904
S'END_OF_SEQUENCE'
p2905
S'BEGINNING_OF_SEQUENCE'
p2906
S'(0, 0, 0)'
p2907
S'END_OF_SEQUENCE'
p2908
S'BEGINNING_OF_SEQUENCE'
p2909
S'(0, 0, 0)'
p2910
S'END_OF_SEQUENCE'
p2911
S'BEGINNING_OF_SEQUENCE'
p2912
S'(0, 0, 0)'
p2913
S'END_OF_SEQUENCE'
p2914
S'BEGINNING_OF_SEQUENCE'
p2915
S'(0, 0, 0)'
p2916
S'END_OF_SEQUENCE'
p2917
S'BEGINNING_OF_SEQUENCE'
p2918
S'(0, 0, 0)'
p2919
S'END_OF_SEQUENCE'
p2920
S'BEGINNING_OF_SEQUENCE'
p2921
S'(0, 0, 0)'
p2922
S'END_OF_SEQUENCE'
p2923
S'BEGINNING_OF_SEQUENCE'
p2924
S'(0, 0, 0)'
p2925
S'END_OF_SEQUENCE'
p2926
S'BEGINNING_OF_SEQUENCE'
p2927
S'(0, 0, 0)'
p2928
S'END_OF_SEQUENCE'
p2929
S'BEGINNING_OF_SEQUENCE'
p2930
S'(0, 0, 0)'
p2931
S'END_OF_SEQUENCE'
p2932
S'BEGINNING_OF_SEQUENCE'
p2933
S'(0, 0, 0)'
p2934
S'END_OF_SEQUENCE'
p2935
S'BEGINNING_OF_SEQUENCE'
p2936
S'(0, 0, 0)'
p2937
S'END_OF_SEQUENCE'
p2938
S'BEGINNING_OF_SEQUENCE'
p2939
S'(0, 0, 0)'
p2940
S'END_OF_SEQUENCE'
p2941
S'BEGINNING_OF_SEQUENCE'
p2942
S'(0, 0, 0)'
p2943
S'END_OF_SEQUENCE'
p2944
S'BEGINNING_OF_SEQUENCE'
p2945
S'(0, 0, 0)'
p2946
S'END_OF_SEQUENCE'
p2947
S'BEGINNING_OF_SEQUENCE'
p2948
S'(0, 0, 0)'
p2949
S'END_OF_SEQUENCE'
p2950
S'BEGINNING_OF_SEQUENCE'
p2951
S'(0, 0, 0)'
p2952
S'END_OF_SEQUENCE'
p2953
S'BEGINNING_OF_SEQUENCE'
p2954
S'(0, 0, 0)'
p2955
S'END_OF_SEQUENCE'
p2956
S'BEGINNING_OF_SEQUENCE'
p2957
S'(0, 0, 0)'
p2958
S'END_OF_SEQUENCE'
p2959
S'BEGINNING_OF_SEQUENCE'
p2960
S'(0, 0, 0)'
p2961
S'END_OF_SEQUENCE'
p2962
S'BEGINNING_OF_SEQUENCE'
p2963
S'(0, 0, 0)'
p2964
S'END_OF_SEQUENCE'
p2965
S'BEGINNING_OF_SEQUENCE'
p2966
S'(0, 0, 0)'
p2967
S'END_OF_SEQUENCE'
p2968
S'BEGINNING_OF_SEQUENCE'
p2969
S'(0, 0, 0)'
p2970
S'(0, 0, -2)'
p2971
S'END_OF_SEQUENCE'
p2972
S'BEGINNING_OF_SEQUENCE'
p2973
S'(0, 0, 0)'
p2974
S'END_OF_SEQUENCE'
p2975
S'BEGINNING_OF_SEQUENCE'
p2976
S'(0, 0, 0)'
p2977
S'END_OF_SEQUENCE'
p2978
S'BEGINNING_OF_SEQUENCE'
p2979
S'(0, 0, 0)'
p2980
S'(0, 0, -5)'
p2981
S'END_OF_SEQUENCE'
p2982
S'BEGINNING_OF_SEQUENCE'
p2983
S'(0, 0, 0)'
p2984
S'END_OF_SEQUENCE'
p2985
S'BEGINNING_OF_SEQUENCE'
p2986
S'(0, 0, 0)'
p2987
S'END_OF_SEQUENCE'
p2988
S'BEGINNING_OF_SEQUENCE'
p2989
S'(0, 0, 0)'
p2990
S'END_OF_SEQUENCE'
p2991
S'BEGINNING_OF_SEQUENCE'
p2992
S'(0, 0, 0)'
p2993
S'END_OF_SEQUENCE'
p2994
S'BEGINNING_OF_SEQUENCE'
p2995
S'(0, 0, 0)'
p2996
S'(0, 0, -3)'
p2997
S'END_OF_SEQUENCE'
p2998
S'BEGINNING_OF_SEQUENCE'
p2999
S'(0, 0, 0)'
p3000
S'END_OF_SEQUENCE'
p3001
S'BEGINNING_OF_SEQUENCE'
p3002
S'(0, 0, 0)'
p3003
S'(0, 0, 1)'
p3004
S'END_OF_SEQUENCE'
p3005
S'BEGINNING_OF_SEQUENCE'
p3006
S'(0, 0, 0)'
p3007
S'END_OF_SEQUENCE'
p3008
S'BEGINNING_OF_SEQUENCE'
p3009
S'(0, 0, 0)'
p3010
S'END_OF_SEQUENCE'
p3011
S'BEGINNING_OF_SEQUENCE'
p3012
S'(0, 0, 0)'
p3013
S'END_OF_SEQUENCE'
p3014
S'BEGINNING_OF_SEQUENCE'
p3015
S'(0, 0, 0)'
p3016
S'END_OF_SEQUENCE'
p3017
S'BEGINNING_OF_SEQUENCE'
p3018
S'(0, 0, 0)'
p3019
S'END_OF_SEQUENCE'
p3020
S'BEGINNING_OF_SEQUENCE'
p3021
S'(0, 0, 0)'
p3022
S'(0, 0, 0)'
p3023
S'END_OF_SEQUENCE'
p3024
S'BEGINNING_OF_SEQUENCE'
p3025
S'(0, 0, 0)'
p3026
S'END_OF_SEQUENCE'
p3027
S'BEGINNING_OF_SEQUENCE'
p3028
S'(0, 0, 0)'
p3029
S'(0, 0, 0)'
p3030
S'(0, 0, 0)'
p3031
S'(0, 0, 0)'
p3032
S'(0, 0, -3)'
p3033
S'(0, -3, 5)'
p3034
S'(-3, 5, 0)'
p3035
S'(5, 0, -2)'
p3036
S'(0, -2, -3)'
p3037
S'(-2, -3, 0)'
p3038
S'(-3, 0, -2)'
p3039
S'(0, -2, 2)'
p3040
S'(-2, 2, -7)'
p3041
S'(2, -7, 0)'
p3042
S'(-7, 0, 0)'
p3043
S'(0, 0, -2)'
p3044
S'(0, -2, 9)'
p3045
S'(-2, 9, 0)'
p3046
S'END_OF_SEQUENCE'
p3047
S'BEGINNING_OF_SEQUENCE'
p3048
S'(0, 0, 0)'
p3049
S'(0, 0, 7)'
p3050
S'(0, 7, 0)'
p3051
S'(7, 0, -2)'
p3052
S'(0, -2, -2)'
p3053
S'(-2, -2, 2)'
p3054
S'(-2, 2, 3)'
p3055
S'(2, 3, 0)'
p3056
S'(3, 0, 0)'
p3057
S'(0, 0, 0)'
p3058
S'(0, 0, 0)'
p3059
S'(0, 0, -3)'
p3060
S'(0, -3, -5)'
p3061
S'(-3, -5, 3)'
p3062
S'(-5, 3, 0)'
p3063
S'END_OF_SEQUENCE'
p3064
S'BEGINNING_OF_SEQUENCE'
p3065
S'(0, 0, 0)'
p3066
S'(0, 0, 0)'
p3067
S'(0, 0, 0)'
p3068
S'(0, 0, -2)'
p3069
S'(0, -2, 0)'
p3070
S'(-2, 0, 0)'
p3071
S'(0, 0, -2)'
p3072
S'(0, -2, -3)'
p3073
S'(-2, -3, 5)'
p3074
S'(-3, 5, 0)'
p3075
S'(5, 0, -2)'
p3076
S'(0, -2, -10)'
p3077
S'(-2, -10, 0)'
p3078
S'(-10, 0, -2)'
p3079
S'(0, -2, 2)'
p3080
S'(-2, 2, 0)'
p3081
S'(2, 0, -2)'
p3082
S'(0, -2, 4)'
p3083
S'(-2, 4, 3)'
p3084
S'(4, 3, 2)'
p3085
S'(3, 2, -9)'
p3086
S'END_OF_SEQUENCE'
p3087
S'BEGINNING_OF_SEQUENCE'
p3088
S'(0, 0, 0)'
p3089
S'(0, 0, 2)'
p3090
S'(0, 2, 0)'
p3091
S'(2, 0, -2)'
p3092
S'(0, -2, 2)'
p3093
S'(-2, 2, 0)'
p3094
S'(2, 0, -2)'
p3095
S'(0, -2, 0)'
p3096
S'(-2, 0, 0)'
p3097
S'(0, 0, 0)'
p3098
S'(0, 0, 0)'
p3099
S'(0, 0, 0)'
p3100
S'(0, 0, 12)'
p3101
S'(0, 12, 0)'
p3102
S'(12, 0, 0)'
p3103
S'(0, 0, -2)'
p3104
S'(0, -2, 2)'
p3105
S'(-2, 2, 0)'
p3106
S'(2, 0, -2)'
p3107
S'(0, -2, -3)'
p3108
S'(-2, -3, 0)'
p3109
S'(-3, 0, 0)'
p3110
S'(0, 0, 3)'
p3111
S'(0, 3, 0)'
p3112
S'END_OF_SEQUENCE'
p3113
S'BEGINNING_OF_SEQUENCE'
p3114
S'(0, 0, 0)'
p3115
S'(0, 0, 5)'
p3116
S'(0, 5, 0)'
p3117
S'(5, 0, -2)'
p3118
S'(0, -2, -3)'
p3119
S'(-2, -3, 5)'
p3120
S'(-3, 5, -5)'
p3121
S'(5, -5, 0)'
p3122
S'(-5, 0, 0)'
p3123
S'(0, 0, 3)'
p3124
S'(0, 3, -3)'
p3125
S'(3, -3, 3)'
p3126
S'(-3, 3, -3)'
p3127
S'(3, -3, -2)'
p3128
S'(-3, -2, -3)'
p3129
S'(-2, -3, 3)'
p3130
S'(-3, 3, -3)'
p3131
S'(3, -3, -2)'
p3132
S'(-3, -2, -2)'
p3133
S'(-2, -2, 2)'
p3134
S'(-2, 2, -2)'
p3135
S'(2, -2, 9)'
p3136
S'(-2, 9, -2)'
p3137
S'(9, -2, 2)'
p3138
S'(-2, 2, -5)'
p3139
S'(2, -5, 0)'
p3140
S'(-5, 0, -2)'
p3141
S'(0, -2, 0)'
p3142
S'(-2, 0, 0)'
p3143
S'(0, 0, 10)'
p3144
S'(0, 10, -3)'
p3145
S'(10, -3, 3)'
p3146
S'(-3, 3, -3)'
p3147
S'END_OF_SEQUENCE'
p3148
S'BEGINNING_OF_SEQUENCE'
p3149
S'(0, 0, 0)'
p3150
S'(0, 0, -5)'
p3151
S'(0, -5, 3)'
p3152
S'(-5, 3, -3)'
p3153
S'(3, -3, -2)'
p3154
S'(-3, -2, 2)'
p3155
S'(-2, 2, 5)'
p3156
S'(2, 5, -2)'
p3157
S'(5, -2, -3)'
p3158
S'(-2, -3, 3)'
p3159
S'(-3, 3, -3)'
p3160
S'(3, -3, -1)'
p3161
S'(-3, -1, 1)'
p3162
S'(-1, 1, 12)'
p3163
S'(1, 12, -4)'
p3164
S'(12, -4, 0)'
p3165
S'(-4, 0, -3)'
p3166
S'(0, -3, -2)'
p3167
S'(-3, -2, -3)'
p3168
S'(-2, -3, 5)'
p3169
S'(-3, 5, -2)'
p3170
S'(5, -2, -3)'
p3171
S'(-2, -3, 3)'
p3172
S'(-3, 3, -3)'
p3173
S'(3, -3, 3)'
p3174
S'(-3, 3, -3)'
p3175
S'(3, -3, 12)'
p3176
S'(-3, 12, 0)'
p3177
S'(12, 0, -4)'
p3178
S'(0, -4, -6)'
p3179
S'(-4, -6, 6)'
p3180
S'(-6, 6, 0)'
p3181
S'(6, 0, -3)'
p3182
S'(0, -3, -2)'
p3183
S'(-3, -2, 2)'
p3184
S'(-2, 2, 0)'
p3185
S'(2, 0, -2)'
p3186
S'(0, -2, -3)'
p3187
S'(-2, -3, 3)'
p3188
S'(-3, 3, 0)'
p3189
S'(3, 0, -3)'
p3190
S'(0, -3, -2)'
p3191
S'(-3, -2, -2)'
p3192
S'(-2, -2, 9)'
p3193
S'(-2, 9, -7)'
p3194
S'END_OF_SEQUENCE'
p3195
S'BEGINNING_OF_SEQUENCE'
p3196
S'(0, 0, 0)'
p3197
S'(0, 0, 5)'
p3198
S'(0, 5, -5)'
p3199
S'(5, -5, 5)'
p3200
S'(-5, 5, 3)'
p3201
S'(5, 3, 0)'
p3202
S'(3, 0, -3)'
p3203
S'(0, -3, -14)'
p3204
S'(-3, -14, 21)'
p3205
S'(-14, 21, 3)'
p3206
S'(21, 3, 0)'
p3207
S'(3, 0, -3)'
p3208
S'(0, -3, -2)'
p3209
S'(-3, -2, -2)'
p3210
S'(-2, -2, -3)'
p3211
S'(-2, -3, 3)'
p3212
S'(-3, 3, 2)'
p3213
S'(3, 2, 0)'
p3214
S'(2, 0, 0)'
p3215
S'(0, 0, 0)'
p3216
S'(0, 0, 5)'
p3217
S'(0, 5, -5)'
p3218
S'(5, -5, 0)'
p3219
S'(-5, 0, 5)'
p3220
S'(0, 5, -5)'
p3221
S'(5, -5, 0)'
p3222
S'(-5, 0, 5)'
p3223
S'(0, 5, -5)'
p3224
S'(5, -5, 5)'
p3225
S'(-5, 5, -5)'
p3226
S'(5, -5, 5)'
p3227
S'(-5, 5, 0)'
p3228
S'(5, 0, -5)'
p3229
S'(0, -5, 5)'
p3230
S'(-5, 5, 2)'
p3231
S'(5, 2, 3)'
p3232
S'(2, 3, 0)'
p3233
S'(3, 0, 0)'
p3234
S'(0, 0, 0)'
p3235
S'(0, 0, 0)'
p3236
S'(0, 0, 0)'
p3237
S'(0, 0, 0)'
p3238
S'(0, 0, 0)'
p3239
S'(0, 0, 0)'
p3240
S'(0, 0, 0)'
p3241
S'(0, 0, 0)'
p3242
S'(0, 0, -5)'
p3243
S'(0, -5, 2)'
p3244
S'(-5, 2, 4)'
p3245
S'(2, 4, 0)'
p3246
S'(4, 0, -1)'
p3247
S'(0, -1, 0)'
p3248
S'(-1, 0, -3)'
p3249
S'(0, -3, 3)'
p3250
S'(-3, 3, -20)'
p3251
S'(3, -20, 0)'
p3252
S'(-20, 0, 0)'
p3253
S'(0, 0, 12)'
p3254
S'(0, 12, 3)'
p3255
S'(12, 3, 2)'
p3256
S'(3, 2, 3)'
p3257
S'(2, 3, 0)'
p3258
S'(3, 0, -3)'
p3259
S'(0, -3, -2)'
p3260
S'(-3, -2, -3)'
p3261
S'(-2, -3, 3)'
p3262
S'(-3, 3, 0)'
p3263
S'(3, 0, 2)'
p3264
S'(0, 2, -2)'
p3265
S'(2, -2, -3)'
p3266
S'(-2, -3, -1)'
p3267
S'(-3, -1, -1)'
p3268
S'(-1, -1, -2)'
p3269
S'(-1, -2, 9)'
p3270
S'(-2, 9, -2)'
p3271
S'(9, -2, -3)'
p3272
S'(-2, -3, -1)'
p3273
S'(-3, -1, -1)'
p3274
S'(-1, -1, -2)'
p3275
S'(-1, -2, 0)'
p3276
S'(-2, 0, 9)'
p3277
S'(0, 9, -7)'
p3278
S'(9, -7, 7)'
p3279
S'(-7, 7, -2)'
p3280
S'(7, -2, 0)'
p3281
S'(-2, 0, -3)'
p3282
S'(0, -3, -2)'
p3283
S'(-3, -2, 7)'
p3284
S'(-2, 7, -2)'
p3285
S'(7, -2, -3)'
p3286
S'(-2, -3, 0)'
p3287
S'(-3, 0, -2)'
p3288
S'(0, -2, 7)'
p3289
S'(-2, 7, -2)'
p3290
S'(7, -2, 0)'
p3291
S'(-2, 0, 2)'
p3292
S'(0, 2, -7)'
p3293
S'(2, -7, 2)'
p3294
S'(-7, 2, 5)'
p3295
S'(2, 5, -2)'
p3296
S'(5, -2, 2)'
p3297
S'(-2, 2, 3)'
p3298
S'(2, 3, 0)'
p3299
S'(3, 0, -3)'
p3300
S'(0, -3, -2)'
p3301
S'(-3, -2, -3)'
p3302
S'END_OF_SEQUENCE'
p3303
S'BEGINNING_OF_SEQUENCE'
p3304
S'(0, 0, 0)'
p3305
S'(0, 0, -2)'
p3306
S'(0, -2, -3)'
p3307
S'(-2, -3, -2)'
p3308
S'(-3, -2, 0)'
p3309
S'(-2, 0, -2)'
p3310
S'(0, -2, 9)'
p3311
S'(-2, 9, -7)'
p3312
S'(9, -7, -2)'
p3313
S'(-7, -2, 9)'
p3314
S'(-2, 9, -5)'
p3315
S'(9, -5, 0)'
p3316
S'(-5, 0, 0)'
p3317
S'(0, 0, 0)'
p3318
S'(0, 0, -2)'
p3319
S'(0, -2, 2)'
p3320
S'(-2, 2, -4)'
p3321
S'(2, -4, 9)'
p3322
S'(-4, 9, -2)'
p3323
S'(9, -2, 2)'
p3324
S'(-2, 2, 0)'
p3325
S'(2, 0, 0)'
p3326
S'(0, 0, 0)'
p3327
S'END_OF_SEQUENCE'
p3328
S'BEGINNING_OF_SEQUENCE'
p3329
S'(0, 0, 0)'
p3330
S'(0, 0, 0)'
p3331
S'(0, 0, 0)'
p3332
S'(0, 0, 0)'
p3333
S'(0, 0, -3)'
p3334
S'(0, -3, 3)'
p3335
S'(-3, 3, 0)'
p3336
S'(3, 0, 0)'
p3337
S'END_OF_SEQUENCE'
p3338
S'BEGINNING_OF_SEQUENCE'
p3339
S'(0, 0, 0)'
p3340
S'(0, 0, 0)'
p3341
S'(0, 0, 0)'
p3342
S'(0, 0, -2)'
p3343
S'(0, -2, 2)'
p3344
S'(-2, 2, 0)'
p3345
S'(2, 0, 0)'
p3346
S'(0, 0, -12)'
p3347
S'(0, -12, 0)'
p3348
S'(-12, 0, -2)'
p3349
S'(0, -2, 9)'
p3350
S'(-2, 9, -7)'
p3351
S'END_OF_SEQUENCE'
p3352
S'BEGINNING_OF_SEQUENCE'
p3353
S'(0, 0, 0)'
p3354
S'(0, 0, -5)'
p3355
S'(0, -5, 10)'
p3356
S'(-5, 10, -2)'
p3357
S'(10, -2, -3)'
p3358
S'(-2, -3, -2)'
p3359
S'(-3, -2, 2)'
p3360
S'(-2, 2, 0)'
p3361
S'(2, 0, 3)'
p3362
S'(0, 3, -10)'
p3363
S'(3, -10, -2)'
p3364
S'(-10, -2, 5)'
p3365
S'(-2, 5, -3)'
p3366
S'(5, -3, 0)'
p3367
S'(-3, 0, 4)'
p3368
S'(0, 4, -6)'
p3369
S'(4, -6, 9)'
p3370
S'(-6, 9, -9)'
p3371
S'END_OF_SEQUENCE'
p3372
S'BEGINNING_OF_SEQUENCE'
p3373
S'(0, 0, 0)'
p3374
S'(0, 0, 0)'
p3375
S'(0, 0, -2)'
p3376
S'(0, -2, -3)'
p3377
S'END_OF_SEQUENCE'
p3378
S'BEGINNING_OF_SEQUENCE'
p3379
S'(0, 0, 0)'
p3380
S'(0, 0, -3)'
p3381
S'(0, -3, 4)'
p3382
S'(-3, 4, 3)'
p3383
S'(4, 3, 0)'
p3384
S'(3, 0, -2)'
p3385
S'(0, -2, 0)'
p3386
S'(-2, 0, -2)'
p3387
S'(0, -2, 0)'
p3388
S'(-2, 0, -3)'
p3389
S'(0, -3, -2)'
p3390
S'(-3, -2, 0)'
p3391
S'END_OF_SEQUENCE'
p3392
S'BEGINNING_OF_SEQUENCE'
p3393
S'(0, 0, 0)'
p3394
S'(0, 0, 2)'
p3395
S'(0, 2, 3)'
p3396
S'(2, 3, 0)'
p3397
S'(3, 0, -3)'
p3398
S'(0, -3, 0)'
p3399
S'(-3, 0, -2)'
p3400
S'(0, -2, -5)'
p3401
S'(-2, -5, 0)'
p3402
S'(-5, 0, 0)'
p3403
S'(0, 0, 0)'
p3404
S'(0, 0, 0)'
p3405
S'(0, 0, 0)'
p3406
S'(0, 0, 0)'
p3407
S'(0, 0, -2)'
p3408
S'(0, -2, 9)'
p3409
S'(-2, 9, -9)'
p3410
S'(9, -9, 2)'
p3411
S'(-9, 2, -2)'
p3412
S'END_OF_SEQUENCE'
p3413
S'BEGINNING_OF_SEQUENCE'
p3414
S'(0, 0, 0)'
p3415
S'(0, 0, 0)'
p3416
S'(0, 0, 0)'
p3417
S'(0, 0, 0)'
p3418
S'(0, 0, 2)'
p3419
S'(0, 2, 0)'
p3420
S'(2, 0, -3)'
p3421
S'(0, -3, 0)'
p3422
S'(-3, 0, -2)'
p3423
S'(0, -2, 0)'
p3424
S'(-2, 0, 3)'
p3425
S'(0, 3, -7)'
p3426
S'(3, -7, 0)'
p3427
S'(-7, 0, 0)'
p3428
S'(0, 0, -2)'
p3429
S'(0, -2, 9)'
p3430
S'(-2, 9, -9)'
p3431
S'(9, -9, 2)'
p3432
S'(-9, 2, -2)'
p3433
S'END_OF_SEQUENCE'
p3434
S'BEGINNING_OF_SEQUENCE'
p3435
S'(0, 0, 0)'
p3436
S'(0, 0, 0)'
p3437
S'(0, 0, 0)'
p3438
S'(0, 0, -3)'
p3439
S'(0, -3, 5)'
p3440
S'(-3, 5, 0)'
p3441
S'(5, 0, 0)'
p3442
S'(0, 0, 0)'
p3443
S'(0, 0, -2)'
p3444
S'(0, -2, -3)'
p3445
S'(-2, -3, 3)'
p3446
S'(-3, 3, 0)'
p3447
S'(3, 0, -3)'
p3448
S'(0, -3, -5)'
p3449
S'(-3, -5, 3)'
p3450
S'END_OF_SEQUENCE'
p3451
S'BEGINNING_OF_SEQUENCE'
p3452
S'(0, 0, 0)'
p3453
S'END_OF_SEQUENCE'
p3454
S'BEGINNING_OF_SEQUENCE'
p3455
S'(0, 0, 0)'
p3456
S'(0, 0, 0)'
p3457
S'(0, 0, 0)'
p3458
S'(0, 0, 7)'
p3459
S'(0, 7, -4)'
p3460
S'(7, -4, -3)'
p3461
S'(-4, -3, -2)'
p3462
S'(-3, -2, 0)'
p3463
S'(-2, 0, 2)'
p3464
S'(0, 2, -2)'
p3465
S'(2, -2, -3)'
p3466
S'(-2, -3, -2)'
p3467
S'(-3, -2, 0)'
p3468
S'(-2, 0, -2)'
p3469
S'(0, -2, 0)'
p3470
S'(-2, 0, 0)'
p3471
S'(0, 0, 0)'
p3472
S'(0, 0, 0)'
p3473
S'(0, 0, 9)'
p3474
S'(0, 9, -7)'
p3475
S'(9, -7, 10)'
p3476
S'(-7, 10, 0)'
p3477
S'(10, 0, 0)'
p3478
S'(0, 0, 0)'
p3479
S'(0, 0, -3)'
p3480
S'(0, -3, -5)'
p3481
S'(-3, -5, 8)'
p3482
S'(-5, 8, -3)'
p3483
S'(8, -3, 3)'
p3484
S'(-3, 3, -3)'
p3485
S'(3, -3, -2)'
p3486
S'(-3, -2, 2)'
p3487
S'(-2, 2, -2)'
p3488
S'(2, -2, -3)'
p3489
S'(-2, -3, -2)'
p3490
S'(-3, -2, 0)'
p3491
S'(-2, 0, 0)'
p3492
S'(0, 0, -2)'
p3493
S'(0, -2, 0)'
p3494
S'(-2, 0, 7)'
p3495
S'(0, 7, -3)'
p3496
S'(7, -3, 3)'
p3497
S'(-3, 3, -3)'
p3498
S'(3, -3, -2)'
p3499
S'(-3, -2, -2)'
p3500
S'(-2, -2, 2)'
p3501
S'(-2, 2, -2)'
p3502
S'(2, -2, 12)'
p3503
S'(-2, 12, -3)'
p3504
S'(12, -3, 3)'
p3505
S'(-3, 3, -3)'
p3506
S'(3, -3, -2)'
p3507
S'(-3, -2, -3)'
p3508
S'(-2, -3, 3)'
p3509
S'(-3, 3, -3)'
p3510
S'(3, -3, -2)'
p3511
S'(-3, -2, 0)'
p3512
S'(-2, 0, 0)'
p3513
S'(0, 0, 0)'
p3514
S'(0, 0, -2)'
p3515
S'(0, -2, 2)'
p3516
S'(-2, 2, -2)'
p3517
S'(2, -2, 0)'
p3518
S'END_OF_SEQUENCE'
p3519
S'BEGINNING_OF_SEQUENCE'
p3520
S'(0, 0, 0)'
p3521
S'(0, 0, -10)'
p3522
S'(0, -10, 8)'
p3523
S'(-10, 8, -12)'
p3524
S'END_OF_SEQUENCE'
p3525
S'BEGINNING_OF_SEQUENCE'
p3526
S'(0, 0, 0)'
p3527
S'END_OF_SEQUENCE'
p3528
S'BEGINNING_OF_SEQUENCE'
p3529
S'(0, 0, 0)'
p3530
S'(0, 0, -19)'
p3531
S'(0, -19, 12)'
p3532
S'(-19, 12, -12)'
p3533
S'END_OF_SEQUENCE'
p3534
S'BEGINNING_OF_SEQUENCE'
p3535
S'(0, 0, 0)'
p3536
S'(0, 0, -19)'
p3537
S'(0, -19, 6)'
p3538
S'(-19, 6, 1)'
p3539
S'END_OF_SEQUENCE'
p3540
S'BEGINNING_OF_SEQUENCE'
p3541
S'(0, 0, 0)'
p3542
S'(0, 0, -12)'
p3543
S'(0, -12, 24)'
p3544
S'(-12, 24, -15)'
p3545
S'(24, -15, 8)'
p3546
S'END_OF_SEQUENCE'
p3547
S'BEGINNING_OF_SEQUENCE'
p3548
S'(0, 0, 0)'
p3549
S'(0, 0, -8)'
p3550
S'(0, -8, 8)'
p3551
S'END_OF_SEQUENCE'
p3552
S'BEGINNING_OF_SEQUENCE'
p3553
S'(0, 0, 0)'
p3554
S'(0, 0, -10)'
p3555
S'END_OF_SEQUENCE'
p3556
S'BEGINNING_OF_SEQUENCE'
p3557
S'(0, 0, 0)'
p3558
S'(0, 0, -19)'
p3559
S'(0, -19, 12)'
p3560
S'(-19, 12, -12)'
p3561
S'END_OF_SEQUENCE'
p3562
S'BEGINNING_OF_SEQUENCE'
p3563
S'(0, 0, 0)'
p3564
S'(0, 0, -19)'
p3565
S'(0, -19, 6)'
p3566
S'(-19, 6, 1)'
p3567
S'END_OF_SEQUENCE'
p3568
S'BEGINNING_OF_SEQUENCE'
p3569
S'(0, 0, 0)'
p3570
S'(0, 0, -12)'
p3571
S'(0, -12, 24)'
p3572
S'(-12, 24, -15)'
p3573
S'END_OF_SEQUENCE'
p3574
S'BEGINNING_OF_SEQUENCE'
p3575
S'(0, 0, 0)'
p3576
S'(0, 0, -8)'
p3577
S'(0, -8, 15)'
p3578
S'(-8, 15, -24)'
p3579
S'END_OF_SEQUENCE'
p3580
S'BEGINNING_OF_SEQUENCE'
p3581
S'(0, 0, 0)'
p3582
S'(0, 0, -16)'
p3583
S'END_OF_SEQUENCE'
p3584
S'BEGINNING_OF_SEQUENCE'
p3585
S'(0, 0, 0)'
p3586
S'(0, 0, 24)'
p3587
S'(0, 24, -12)'
p3588
S'(24, -12, 7)'
p3589
S'END_OF_SEQUENCE'
p3590
S'BEGINNING_OF_SEQUENCE'
p3591
S'(0, 0, 0)'
p3592
S'(0, 0, -7)'
p3593
S'(0, -7, 12)'
p3594
S'(-7, 12, -24)'
p3595
S'(12, -24, 22)'
p3596
S'(-24, 22, -10)'
p3597
S'END_OF_SEQUENCE'
p3598
S'BEGINNING_OF_SEQUENCE'
p3599
S'(0, 0, 0)'
p3600
S'(0, 0, -19)'
p3601
S'(0, -19, 12)'
p3602
S'(-19, 12, -12)'
p3603
S'END_OF_SEQUENCE'
p3604
S'BEGINNING_OF_SEQUENCE'
p3605
S'(0, 0, 0)'
p3606
S'(0, 0, -19)'
p3607
S'(0, -19, 21)'
p3608
S'(-19, 21, -9)'
p3609
S'(21, -9, -5)'
p3610
S'(-9, -5, 16)'
p3611
S'END_OF_SEQUENCE'
p3612
S'BEGINNING_OF_SEQUENCE'
p3613
S'(0, 0, 0)'
p3614
S'(0, 0, -24)'
p3615
S'(0, -24, 9)'
p3616
S'(-24, 9, -9)'
p3617
S'(9, -9, 16)'
p3618
S'END_OF_SEQUENCE'
p3619
S'BEGINNING_OF_SEQUENCE'
p3620
S'(0, 0, 0)'
p3621
S'END_OF_SEQUENCE'
p3622
S'BEGINNING_OF_SEQUENCE'
p3623
S'(0, 0, 0)'
p3624
S'(0, 0, -12)'
p3625
S'(0, -12, 10)'
p3626
S'(-12, 10, -12)'
p3627
S'(10, -12, -5)'
p3628
S'(-12, -5, 2)'
p3629
S'(-5, 2, 10)'
p3630
S'(2, 10, -8)'
p3631
S'END_OF_SEQUENCE'
p3632
S'BEGINNING_OF_SEQUENCE'
p3633
S'(0, 0, 0)'
p3634
S'END_OF_SEQUENCE'
p3635
S'BEGINNING_OF_SEQUENCE'
p3636
S'(0, 0, 0)'
p3637
S'(0, 0, 19)'
p3638
S'END_OF_SEQUENCE'
p3639
S'BEGINNING_OF_SEQUENCE'
p3640
S'(0, 0, 0)'
p3641
S'(0, 0, 24)'
p3642
S'(0, 24, -17)'
p3643
S'(24, -17, 17)'
p3644
S'(-17, 17, -24)'
p3645
S'(17, -24, 19)'
p3646
S'END_OF_SEQUENCE'
p3647
S'BEGINNING_OF_SEQUENCE'
p3648
S'(0, 0, 0)'
p3649
S'(0, 0, 24)'
p3650
S'(0, 24, -17)'
p3651
S'(24, -17, 15)'
p3652
S'(-17, 15, -22)'
p3653
S'(15, -22, 7)'
p3654
S'(-22, 7, -7)'
p3655
S'(7, -7, 21)'
p3656
S'END_OF_SEQUENCE'
p3657
S'BEGINNING_OF_SEQUENCE'
p3658
S'(0, 0, 0)'
p3659
S'END_OF_SEQUENCE'
p3660
S'BEGINNING_OF_SEQUENCE'
p3661
S'(0, 0, 0)'
p3662
S'(0, 0, -5)'
p3663
S'(0, -5, 21)'
p3664
S'END_OF_SEQUENCE'
p3665
S'BEGINNING_OF_SEQUENCE'
p3666
S'(0, 0, 0)'
p3667
S'END_OF_SEQUENCE'
p3668
S'BEGINNING_OF_SEQUENCE'
p3669
S'(0, 0, 0)'
p3670
S'(0, 0, -16)'
p3671
S'(0, -16, 10)'
p3672
S'END_OF_SEQUENCE'
p3673
S'BEGINNING_OF_SEQUENCE'
p3674
S'(0, 0, 0)'
p3675
S'(0, 0, 19)'
p3676
S'END_OF_SEQUENCE'
p3677
S'BEGINNING_OF_SEQUENCE'
p3678
S'(0, 0, 0)'
p3679
S'(0, 0, 24)'
p3680
S'(0, 24, -17)'
p3681
S'(24, -17, 15)'
p3682
S'(-17, 15, -22)'
p3683
S'(15, -22, 7)'
p3684
S'(-22, 7, -7)'
p3685
S'(7, -7, 21)'
p3686
S'END_OF_SEQUENCE'
p3687
S'BEGINNING_OF_SEQUENCE'
p3688
S'(0, 0, 0)'
p3689
S'END_OF_SEQUENCE'
p3690
S'BEGINNING_OF_SEQUENCE'
p3691
S'(0, 0, 0)'
p3692
S'(0, 0, -5)'
p3693
S'(0, -5, 21)'
p3694
S'END_OF_SEQUENCE'
p3695
S'BEGINNING_OF_SEQUENCE'
p3696
S'(0, 0, 0)'
p3697
S'END_OF_SEQUENCE'
p3698
S'BEGINNING_OF_SEQUENCE'
p3699
S'(0, 0, 0)'
p3700
S'(0, 0, -16)'
p3701
S'(0, -16, 10)'
p3702
S'END_OF_SEQUENCE'
p3703
S'BEGINNING_OF_SEQUENCE'
p3704
S'(0, 0, 0)'
p3705
S'(0, 0, 19)'
p3706
S'END_OF_SEQUENCE'
p3707
S'BEGINNING_OF_SEQUENCE'
p3708
S'(0, 0, 0)'
p3709
S'(0, 0, 24)'
p3710
S'(0, 24, -17)'
p3711
S'(24, -17, 15)'
p3712
S'(-17, 15, -22)'
p3713
S'(15, -22, 7)'
p3714
S'(-22, 7, -12)'
p3715
S'(7, -12, 12)'
p3716
S'(-12, 12, 12)'
p3717
S'(12, 12, -24)'
p3718
S'(12, -24, 12)'
p3719
S'(-24, 12, 12)'
p3720
S'(12, 12, -24)'
p3721
S'(12, -24, 22)'
p3722
S'(-24, 22, -10)'
p3723
S'END_OF_SEQUENCE'
p3724
S'BEGINNING_OF_SEQUENCE'
p3725
S'(0, 0, 0)'
p3726
S'(0, 0, -12)'
p3727
S'(0, -12, 5)'
p3728
S'(-12, 5, -12)'
p3729
S'END_OF_SEQUENCE'
p3730
S'BEGINNING_OF_SEQUENCE'
p3731
S'(0, 0, 0)'
p3732
S'(0, 0, -17)'
p3733
S'(0, -17, 22)'
p3734
S'(-17, 22, -10)'
p3735
S'(22, -10, 5)'
p3736
S'(-10, 5, -12)'
p3737
S'END_OF_SEQUENCE'
p3738
S'BEGINNING_OF_SEQUENCE'
p3739
S'(0, 0, 0)'
p3740
S'END_OF_SEQUENCE'
p3741
tp3742
.